56444532
<0100:0001> (STRING 'Dynamic App')
  0100 0001 00180000 
  0044 0079 006e 0061 006d 0069 0063 0020 0041 0070 0070 0000 
<\string>

<0100:0005> (STRING '6/28/2018 9:45:28 AM')
  0100 0005 002a0000 
  0036 002f 0032 0038 002f 0032 0030 0031 0038 0020 0039 003a 0034 0035 003a 0032 0038 0020 0041 004d 0000 
<\string>

<0a00:a5db> (CRCCHECK)
  0a00 a5db sizesize 
  
<\ sizesize <- 00000000 > // 0 bytes of payload.

//Section 0, 'votext':
<0300:0000> (MEMORY; PAGE 0)
  0300 0000 sizesize 
  0000 0000 03ef  //address, align, size
  36130024 3e120024 3e05b814 36450024 3e003841 00000000 3e00f846 3e01f850 
  3e04784d f4004491 00000012 3e13b80f 3e108024 3e110024 3e114024 3e144024 
  29000000 3e000024 f4004450 00000000 36c305cc 68903840 3e100024 3e110024 
  3e014024 31000024 f4004008 20000000 00000748 60801b4c 00000880 28001f15 
  00000024 62841bcc 00000ec0 28000c15 00000024 36f3980f 36f4580d 36f1d810 
  36f0d806 36f01801 34059014 36f30024 36f20024 20000000 00000024 00000ec0 
  36130024 3e110024 3e114024 3e110024 3e114024 29000000 3e000024 b8861acc 
  28000f40 689e0024 29000000 3e000024 43461bcc 00004000 63000024 00000024 
  28000958 00000024 4330184c 3e100024 00001400 29000000 3e000024 000001cd 
  2440140d 36e30024 00000204 3210184c 689e3840 00001680 29000000 3e000024 
  36e30024 00001800 36130024 29000000 3e000024 36f30a4c b8840bcc 6240184c 
  00001940 28000e98 00000024 0000004d 24401dcd 68921bcc fe18108c 3c01b3c7 
  b78e3002 32017043 48b64146 68200024 af0693c7 00003fc0 b20a1002 458c4150 
  29000000 300913c3 60800024 00003fc0 28001e85 00000024 65000024 00000024 
  28001e85 00000024 00001880 36130024 3e118024 29000000 3e000024 41921b8c 
  280015c0 6294084c 28001c80 00000b86 29000000 3e000024 28000940 36f30024 
  36130024 3e120024 3e05b814 36650024 3e007843 3e01b847 3e043851 b8864491 
  c8904452 3e03784e 3e03d04c 3c108024 3cf13005 29000000 3400b3c0 000019c0 
  36130024 29000000 3e000024 00001e00 29000000 3e000024 0000008d 2440284d 
  b8821bcc 00000010 2900e740 4184184c 36130024 3e100024 00002380 29000000 
  3e000024 61921b8c 00001940 36130024 29000000 3e000024 00002500 29000000 
  3e000024 00000084 b8821bcc 61440024 000002c2 28003298 00000010 000001cd 
  24402f0d 000000c5 00000010 2900e740 4584184c 6182184c 3e000024 28003215 
  00002382 36130024 29000000 3e008024 659a1b8c 61820024 000028c2 28003195 
  00000024 36130024 29000000 3e008024 28002ac0 61921bcc 28003040 00002982 
  28002e40 00001882 2900ea00 36130024 36130024 3e100024 00002a40 29000000 
  3e000024 00000010 36f30024 2900e740 00000342 36130024 3e100024 00003080 
  29000000 3e000024 00000010 36f30024 2900ea00 00000382 36130024 3e100024 
  00003780 29000000 3e000024 00000010 36f30024 2900e740 00000402 4084184c 
  3e100024 00003dc0 29000000 3e000024 62841b8c 00000024 28003d55 00000024 
  00004380 36130024 29000000 3e000024 68961bcc 00000010 000004c2 2900ea00 
  36130024 4084184c 3e100024 00004e00 29000000 3e000024 62841b8c 00000024 
  280041c5 00000024 00005840 36130024 29000000 3e000024 68961bcc 00000010 
  00000542 2900e740 36130024 36130024 3e100024 00005e80 29000000 3e000024 
  00000010 36f30024 2900ea00 00000582 4084184c 3e100024 00006900 29000000 
  3e000024 62841b8c 00000024 28004885 00000024 00005840 36130024 29000000 
  3e000024 68961bcc 00000010 00000602 2900ea00 36130024 36130024 3e100024 
  00006f00 29000000 3e000024 00000010 36f30024 2900ea00 00000682 36130024 
  3e100024 00007580 29000000 3e000024 00000010 36f30024 2900efc0 00000702 
  36130024 3e100024 00007b80 3e104024 29000000 3e000024 00000010 36e30024 
  2900efc0 00000802 36130024 3e100024 00008740 3e104024 29000000 3e000024 
  63861b4c 00000010 28009595 00000024 00000902 2900efc0 36130024 36130024 
  3e100024 00009300 3e104024 29000000 3e000024 00000010 36e30024 2900ea00 
  00000a02 36130024 3e100024 00009d80 29000000 3e000024 00000010 36f30024 
  2900ea00 00000a82 36130024 3e100024 0000a180 29000000 3e000024 00000010 
  36f30024 2900efc0 00000b02 36130024 3e100024 0000a9c0 3e104024 29000000 
  3e000024 00000010 36e30024 2900ea00 00000c02 36130024 3e100024 0000b880 
  29000000 3e000024 00000010 36f30024 2900ea00 00000c82 36130024 3e100024 
  0000c740 29000000 3e000024 00000010 36f30024 2900ea00 00001002 36130024 
  3e100024 0000d340 29000000 3e000024 00000010 36f30024 2900e740 00001082 
  36130024 3e100024 0000ddc0 29000000 3e000024 00000010 36f30024 2900efc0 
  000010c2 36130024 3e100024 0000e6c0 3e104024 29000000 3e000024 0000f0c0 
  36e30024 29000000 3e000024 b8861bcc 00000080 63040024 00007fc2 28007118 
  00000010 0000028d 24406d8d 000011c1 00000010 2900e740 4184184c 6386184c 
  3e000024 28007095 00002382 36130024 29000000 3e008024 61921b8c 63860024 
  000028c2 28007015 00000024 36130024 29000000 3e008024 28006900 63961bcc 
  28006ec0 00002982 28006cc0 00001882 b880104c 2900e740 361333c0 00000010 
  36130024 3e100024 2900e740 00007f82 36130024 3e100024 0000f840 29000000 
  3e000024 00000010 36e30024 2900ea00 00000382 00000010 00000902 3443184c 
  b1823000 2900efc0 30093301 00000010 00000402 2900e740 4c8e184c fff04452 
  48b6110c ffe01000 42b693c1 4cd20024 3c0033c1 340013c1 29000000 6c9a13c2 
  00010592 2900f200 36130024 00000010 000000c2 2900e740 36130024 00000010 
  36130024 3e100024 2900e740 00000082 00000010 6894184c 2900e740 3e100024 
  00000010 b884184c 2900e740 3e100024 36130024 3e100024 00010980 29000000 
  3e000024 00000010 36c30024 2900e740 000079c2 00000010 36130024 3e100024 
  2900e740 00007982 00000010 36130024 3e100024 2900e740 00007942 00000010 
  36130024 3e100024 2900e740 00007902 36130024 3e100024 00011b40 29000000 
  3e000024 00000010 36c30024 2900efc0 00007a02 36130024 3e100024 00012fc0 
  3e104024 29000000 3e000024 00000010 36e30024 2900efc0 00007b02 36130024 
  3e100024 00013900 3e104024 29000000 3e000024 00000010 36e30024 2900e740 
  00007fc2 00000010 36130024 3e100024 2900e740 00007f82 36130024 3e100024 
  0000f840 29000000 3e000024 34331b8c 34001041 3e100024 3e105001 3e118024 
  3e11c024 34c00024 3e100024 00014440 3e104024 29000000 3e000024 34231a8c 
  34001041 34009343 4cda0024 00014ec0 3e110024 3e114024 3e110024 3e114024 
  29000000 3e000024 f4004452 34131acc 29000000 34f08024 36f3d04c 300913c0 
  36f3580e 36f41811 36f19807 36f05803 34059014 36f30024 36f20024 20000000 
  00000024 36130024 3e120024 3e05b814 36450024 3e007842 3e00f844 3e017846 
  3e01f850 3e047852 3e04f84d 3e13b80f b88c138c 3444c024 f40044c0 b8803840 
  3e100024 00015600 b8803800 3cf00024 c890b000 291fff80 3cf00024 408e1b4c 
  2800b180 b8860024 3e100024 3e15134c 29000000 3e04c024 00015851 4c8a1b4c 
  2900f900 f40044d0 60800024 00000024 2800e345 00000024 f40044d0 2900f900 
  00017991 608044d0 00000024 2800e285 00000024 2900f900 00017a51 6080104c 
  00000024 2800e205 b8800024 34230024 34d40024 30000024 60800024 33000024 
  2800de05 00000024 29000000 f4004010 f4004402 29000000 f40044d0 f4004001 
  00000080 61000024 00000e80 2800dc55 00000024 33130024 33f04024 61000024 
  00001040 2800dc55 00000024 62000024 00001680 2800dc48 00000024 62000024 
  00001040 2800dc59 00000024 62020024 00022300 40100024 f4004010 30018024 
  668c0024 00000024 2800da85 00000024 f4004192 00000144 00000011 291ff280 
  36130024 29000000 f40044d0 609244c0 40100024 63964013 637010cc 3009184c 
  28009e88 b8800024 34f31bcc 34e00024 60800024 00000024 2800bf95 00000024 
  668c184c 00017b00 2800d985 00000024 00000000 68903840 bc823840 3e100024 
  000001c0 46003801 2b012190 32000024 f4004008 20000000 0000b7c8 60801b0c 
  00000024 2800d815 00000024 00000010 2900e740 b884184c f4004001 00003ac0 
  61000024 00000024 2800d5c5 00000024 00000010 00007f82 2900ed00 36130024 
  4082184c 00156a80 61000024 0001af40 2800c545 00000024 29000000 3e000024 
  be8a4192 34131bcc 29000000 300913c2 b880104c 3cf00024 00000000 60800024 
  00000024 2800c185 00000024 b8800024 291ff980 f4004010 3413180f 34f00024 
  36f38024 36f4d80d 36f45812 36f1d810 36f15806 36f0d804 36f05802 34059014 
  36f30024 36f20024 20000000 00000024 36130024 000196c0 00006f83 29000000 
  3e000024 be8a4192 34131bcc 29000000 300913c2 000000cd 2440d40d 00000007 
  00000200 00000010 2900efc0 4304184c 4c8a184c 67903840 3e104024 3e100024 
  00019c80 29000000 3e000024 00000022 6e8a1b4c 0001ad00 2800d4c5 00000024 
  00000100 00000010 2900e740 43040024 0001a201 4102184c f4004050 00000401 
  60120002 00000024 2800cf51 00000024 0001a602 3e108024 3e100024 0001a800 
  29000000 3e000024 003d3d01 00000020 00000022 41801b4c 6ec20024 00000024 
  2800d385 00000024 f4004192 34130024 29002000 300913c2 00000400 679e0024 
  43060024 2800bf00 00000024 29000000 3e000024 2800d380 36f30024 00019080 
  36130024 29000000 3e000024 be8a4192 34131bcc 300913c2 29002000 0000bf08 
  00000880 36130024 29000000 3e000024 2800bf80 36f30024 29000000 3e000024 
  2800bf80 36f30024 00018980 36130024 3e14c024 29000000 3e000024 2800bf80 
  36e30024 00018280 36130024 3e14c024 29000000 3e000024 2800bf80 36e30024 
  668c0024 00017b00 2800e0c5 00000024 6894108c 29000000 f4004192 34000024 
  60900024 2800b040 3ce00024 36130024 29000000 3e000024 2800bf80 36f30024 
  2800b040 300933c0 6890104c 2800b040 300933c0 00015912 2900f200 36130024 
  00016292 2900f200 36130024 00016612 2900f200 36130024 00016f92 2900f200 
  36130024 000174d2 36130024 2900f200 0000bf88 f120b811 f4004011 6890020c 
  b2040000 0ffffe02 2800e955 30091bd1 a0200024 00003fc2 20000000 b0200024 
  3e147804 42883888 2900e740 f4004411 f4004450 2900e740 64944004 00000202 
  a0200024 c0401bc8 20000000 36f45804 3e147804 42883888 2900e740 f4004411 
  00000202 a0204450 2900e740 64944004 c0401bc8 20000000 36f45804 3e247808 
  2900ea00 42824411 41844450 2900ea00 4082004c 36f45808 20000000 41804001 
  3e120024 3e05b814 36150024 3e140024 00022050 30000024 3e100024 291ffc80 
  3e048024 60901b8c 00022050 2800f755 00000024 c8900024 36f40024 34059014 
  36f30024 36f20024 20000000 00000024 00022050 3000184c 3e100024 00000280 
  291ffc40 3e000024 2800f580 36e30024 36130024 30107801 41823802 31108024 
  2800fb45 61200041 00000024 2800f9c5 41820024 20000000 36f09801 
<\ sizesize <- 0fc20000 > // 4034 bytes of payload.

//Section 1, 'voxdata_1':
<0301:0000> (MEMORY; PAGE 1)
  0301 0000 sizesize 
  0000 0000 07a0  //address, align, size
  0050 0072 0069 006e 0074 0042 006c 006f 
  0063 006b 0028 0064 0065 0076 003d 0025 
  0070 002c 0020 0062 006c 003d 0025 006c 
  0064 002c 0020 0076 003d 0025 0064 0029 
  000a 0000 0045 003a 0020 004d 0065 0064 
  0069 0061 0020 0063 0061 006e 006e 006f 
  0074 0020 0062 0065 0020 0072 0065 0061 
  0064 000a 0000 0020 0020 0042 006c 006f 
  0063 006b 0020 0030 0078 0025 006c 0078 
  0020 0028 0025 006c 0064 0029 000a 0000 
  0020 0020 0020 0020 0025 0030 0033 0078 
  003a 0000 0020 0025 0030 0034 0078 0000 
  0020 0000 0025 0063 0000 000a 0000 0046 
  0041 0054 0033 0032 0020 0053 0045 0043 
  0054 004f 0052 0020 0030 003a 000a 0000 
  0020 0020 0020 0020 004a 0075 006d 0070 
  0020 0043 006f 0064 0065 0020 002b 0020 
  004e 004f 0050 003a 0020 0000 0020 0025 
  0030 0032 0078 0000 0020 0020 0020 0020 
  004f 0045 004d 0020 004e 0061 006d 0065 
  003a 0020 0000 0020 0022 0000 0022 000a 
  0000 0020 0020 0020 0020 0042 0079 0074 
  0065 0073 0020 0050 0065 0072 0020 0053 
  0065 0063 0074 006f 0072 0020 0025 0064 
  000a 0000 0020 0020 0020 0020 0053 0065 
  0063 0074 006f 0072 0073 0020 0050 0065 
  0072 0020 0043 006c 0075 0073 0074 0065 
  0072 0020 0025 0064 000a 0000 0020 0020 
  0020 0020 0052 0065 0073 0065 0072 0076 
  0065 0064 0020 0053 0065 0063 0074 006f 
  0072 0073 0020 0025 0064 000a 0000 0020 
  0020 0020 0020 004e 0075 006d 0062 0065 
  0072 0020 004f 0066 0020 0046 0041 0054 
  0073 0020 0025 0064 000a 0000 0020 0020 
  0020 0020 0020 0020 002d 003e 0020 0043 
  0041 004e 0027 0054 0020 0042 0045 0020 
  0046 0041 0054 0033 0032 0020 0028 0070 
  0065 0072 0068 0061 0070 0073 0020 0065 
  0078 0046 0041 0054 003f 0029 000a 0000 
  0020 0020 0020 0020 0031 0036 002d 0062 
  0069 0074 0020 004e 0075 006d 0062 0065 
  0072 0020 006f 0066 0020 0053 0065 0063 
  0074 006f 0072 0073 0020 0070 0065 0072 
  0020 0046 0041 0054 0020 0025 0064 000a 
  0000 0020 0020 0020 0020 0020 0020 002d 
  003e 0020 0043 0041 004e 0027 0054 0020 
  0042 0045 0020 0046 0041 0054 0033 0032 
  000a 0000 0020 0020 0020 0020 004d 0065 
  0064 0069 0061 0020 0044 0065 0073 0063 
  0072 0069 0070 0074 006f 0072 0020 0028 
  0030 0078 0066 0038 0020 0066 006f 0072 
  0020 0048 0044 0073 0029 0020 0030 0078 
  0025 0078 000a 0000 0020 0020 0020 0020 
  0031 0036 002d 0062 0069 0074 0020 0046 
  0041 0054 0020 0073 0069 007a 0065 0020 
  0025 0064 000a 0000 0020 0020 0020 0020 
  0053 0065 0063 0074 006f 0072 0073 0020 
  0050 0065 0072 0020 0054 0072 0061 0063 
  006b 0020 0025 0064 000a 0000 0020 0020 
  0020 0020 004e 0075 006d 0062 0065 0072 
  0020 006f 0066 0020 0048 0065 0061 0064 
  0073 0020 0025 0064 000a 0000 0020 0020 
  0020 0020 004e 0075 006d 0062 0065 0072 
  0020 006f 0066 0020 0048 0069 0064 0064 
  0065 006e 0020 0053 0065 0063 0074 006f 
  0072 0073 0020 0069 006e 0020 0050 0061 
  0072 0074 0069 0074 0069 006f 006e 0020 
  0025 006c 0064 000a 0000 0020 0020 0020 
  0020 0033 0032 002d 0062 0069 0074 0020 
  004e 0075 006d 0062 0065 0072 0020 006f 
  0066 0020 0053 0065 0063 0074 006f 0072 
  0073 0020 0069 006e 0020 0050 0061 0072 
  0074 0069 0074 0069 006f 006e 0020 0025 
  006c 0064 000a 0000 0020 0020 0020 0020 
  0033 0032 002d 0062 0069 0074 0020 004e 
  0075 006d 0062 0065 0072 0020 006f 0066 
  0020 0053 0065 0063 0074 006f 0072 0073 
  0020 0070 0065 0072 0020 0046 0041 0054 
  0020 0025 006c 0064 000a 0000 0020 0020 
  0020 0020 0046 006c 0061 0067 0073 0020 
  0030 0078 0025 0078 000a 0000 0020 0020 
  0020 0020 0056 0065 0072 0073 0069 006f 
  006e 0020 006f 0066 0020 0046 0041 0054 
  0033 0032 0020 0044 0072 0069 0076 0065 
  0020 0030 0078 0025 0078 000a 0000 0020 
  0020 0020 0020 0043 006c 0075 0073 0074 
  0065 0072 0020 004e 0075 006d 0062 0065 
  0072 0020 006f 0066 0020 0074 0068 0065 
  0020 0053 0074 0061 0072 0074 0020 006f 
  0066 0020 0074 0068 0065 0020 0052 006f 
  006f 0074 0020 0044 0069 0072 0065 0063 
  0074 006f 0072 0079 0020 0025 006c 0064 
  000a 0000 0020 0020 0020 0020 0053 0065 
  0063 0074 006f 0072 0020 004e 0075 006d 
  0062 0065 0072 0020 006f 0066 0020 0074 
  0068 0065 0020 0046 0069 006c 0065 0053 
  0079 0073 0074 0065 006d 0020 0049 006e 
  0066 006f 0072 006d 0061 0074 0069 006f 
  006e 0020 0053 0065 0063 0074 006f 0072 
  0020 0025 0064 000a 0000 0020 0020 0020 
  0020 0053 0065 0063 0074 006f 0072 0020 
  004e 0075 006d 0062 0065 0072 0020 006f 
  0066 0020 0074 0068 0065 0020 0042 0061 
  0063 006b 0075 0070 0020 0042 006f 006f 
  0074 0020 0053 0065 0063 0074 006f 0072 
  0020 0025 0064 000a 0000 0020 0020 0020 
  0020 004c 006f 0067 0069 0063 0061 006c 
  0020 0044 0072 0069 0076 0065 0020 004e 
  0075 006d 0062 0065 0072 0020 006f 0066 
  0020 0050 0061 0072 0074 0069 0074 0069 
  006f 006e 0020 0025 0064 000a 0000 0020 
  0020 0020 0020 0045 0078 0074 0065 006e 
  0064 0065 0064 0020 0053 0069 0067 006e 
  0061 0074 0075 0072 0065 0020 0028 0030 
  0078 0032 0039 0029 0020 0030 0078 0025 
  0078 000a 0000 0020 0020 0020 0020 0053 
  0065 0072 0069 0061 006c 0020 004e 0075 
  006d 0062 0065 0072 0020 006f 0066 0020 
  0050 0061 0072 0074 0069 0074 0069 006f 
  006e 0020 0030 0078 0025 0030 0034 006c 
  0078 000a 0000 0020 0020 0020 0020 0056 
  006f 006c 0075 006d 0065 0020 006e 0061 
  006d 0065 0020 006f 0066 0020 0050 0061 
  0072 0074 0069 0074 0069 006f 006e 003a 
  0000 0020 0020 0020 0020 0042 006f 006f 
  0074 0020 0052 0065 0063 006f 0072 0064 
  0020 0053 0069 0067 006e 0061 0074 0075 
  0072 0065 0020 0028 0030 0078 0035 0035 
  0020 0030 0078 0061 0061 0029 0020 0030 
  0078 0025 0030 0032 0078 0020 0030 0078 
  0025 0030 0032 0078 000a 0000 0046 0041 
  0054 0033 0032 0020 0053 0045 0043 0054 
  004f 0052 0020 0031 003a 0000 0020 0020 
  0020 0020 0046 0069 0072 0073 0074 0020 
  0053 0069 0067 006e 0061 0074 0075 0072 
  0065 0020 0028 0030 0078 0035 0032 0020 
  0030 0078 0035 0032 0020 0030 0078 0036 
  0031 0020 0030 0078 0034 0031 0029 0020 
  0030 0078 0025 0030 0032 0078 0020 0030 
  0078 0025 0030 0032 0078 0020 0030 0078 
  0025 0030 0032 0078 0020 0030 0078 0025 
  0030 0032 0078 000a 0000 0020 0020 0020 
  0020 0053 0069 0067 006e 0061 0074 0075 
  0072 0065 0020 006f 0066 0020 0046 0053 
  0049 006e 0066 006f 0020 0053 0065 0063 
  0074 006f 0072 0020 0028 0030 0078 0037 
  0032 0020 0030 0078 0037 0032 0020 0030 
  0078 0034 0031 0020 0030 0078 0036 0031 
  0029 0020 0030 0078 0025 0030 0032 0078 
  0020 0030 0078 0025 0030 0032 0078 0020 
  0030 0078 0025 0030 0032 0078 0020 0030 
  0078 0025 0030 0032 0078 000a 0000 0020 
  0020 0020 0020 004e 0075 006d 0062 0065 
  0072 0020 006f 0066 0020 0046 0072 0065 
  0065 0020 0043 006c 0075 0073 0074 0065 
  0072 0073 0020 0030 0078 0025 0030 0038 
  006c 0078 000a 0000 0020 0020 0020 0020 
  004d 006f 0073 0074 0020 0052 0065 0063 
  0065 006e 0074 006c 0079 0020 0041 006c 
  006c 006f 0063 0061 0074 0065 0064 0020 
  0043 006c 0075 0073 0074 0065 0072 0020 
  0030 0078 0025 0030 0038 006c 0078 000a 
  0000 0066 0061 0074 0053 0074 0061 0072 
  0074 0020 0025 006c 0064 002c 0020 0066 
  0061 0074 0053 0069 007a 0065 0020 0025 
  006c 0064 002c 0020 0072 006f 006f 0074 
  0053 0074 0061 0072 0074 0020 0025 006c 
  0064 000a 0000 0046 0041 0054 0020 0052 
  004f 004f 0054 0020 0053 0045 0043 0054 
  004f 0052 0020 0030 0078 0025 006c 0078 
  0020 0028 0025 006c 0064 0029 000a 0000 
  0050 0061 0072 0061 006d 0053 0070 006c 
  0000 002d 0068 0000 0055 0073 0061 0067 
  0065 003a 0020 0046 0061 0074 0049 006e 
  0066 006f 0020 0078 003a 0020 005b 0062 
  006c 006b 004e 0075 006d 005d 0020 005b 
  002d 0076 007c 002b 0076 007c 002d 0068 
  005d 0000 0078 003a 0009 0044 0072 0069 
  0076 0065 0020 006e 0061 006d 0065 0000 
  0062 006c 006b 004e 0075 006d 0009 0050 
  0072 0069 006e 0074 0020 0063 006f 006e 
  0074 0065 006e 0074 0073 0020 006f 0066 
  0020 0061 0020 0064 0069 0073 006b 0020 
  0062 006c 006f 0063 006b 0000 002d 0076 
  007c 002b 0076 0009 0056 0065 0072 0062 
  006f 0073 0065 0020 006f 006e 002f 006f 
  0066 0066 0000 002d 0068 0009 0053 0068 
  006f 0077 0020 0074 0068 0069 0073 0020 
  0068 0065 006c 0070 000a 0000 002d 0076 
  0000 002b 0076 0000 0045 003a 0020 004e 
  006f 0020 0064 0072 0069 0076 0065 0020 
  006c 0065 0074 0074 0065 0072 0020 0073 
  0070 0065 0063 0069 0066 0069 0065 0064 
  000a 0000 0045 003a 0020 0049 006c 006c 
  0065 0067 0061 006c 0020 0064 0072 0069 
  0076 0065 0020 006e 0061 006d 0065 0020 
  0022 0025 0073 0022 000a 0000 0045 003a 
  0020 004e 006f 006e 002d 0065 0078 0069 
  0073 0074 0069 006e 0067 0020 0064 0072 
  0069 0076 0065 0020 0022 0025 0073 0022 
  000a 0000 0046 0041 0054 0020 0046 004f 
  0055 004e 0044 0020 0049 004e 0020 0052 
  004f 004f 0054 0020 0042 004c 004f 0043 
  004b 000a 0000 0046 004f 0055 004e 0044 
  0020 0050 0041 0052 0054 0049 0054 0049 
  004f 004e 0020 0054 0041 0042 004c 0045 
  000a 0000 0050 0041 0052 0054 0049 0054 
  0049 004f 004e 0025 0064 0020 003d 0020 
  0030 0078 0025 0030 0038 006c 0078 0000 
  06d7 06dd 06e3 06ee 06f8 06fe 070c 0713 
  072b 0743 0753 076a 0774 077e 0787 0792 
  0075 006e 006b 006e 006f 0077 006e 0000 
  002c 0020 0074 0079 0070 0065 0020 0030 
  0078 0025 0030 0032 0078 0020 0028 0025 
  0073 0029 000a 0000 0020 0028 006e 006f 
  006e 0065 0029 000a 0000 0046 004f 0055 
  004e 0044 0020 004e 004f 0054 0048 0049 
  004e 0047 0020 0049 004e 0020 0042 004c 
  004f 0043 004b 0020 0030 000a 0000 0065 
  006d 0070 0074 0079 0000 0046 0041 0054 
  0031 0032 0000 0058 0045 004e 0049 0058 
  0020 0072 006f 006f 0074 0000 0058 0045 
  004e 0049 0058 0020 0075 0073 0072 0000 
  0046 0041 0054 0031 0036 0000 0045 0078 
  0074 002e 0070 0061 0072 0074 002e 0020 
  0043 0048 0053 0000 0046 0041 0054 0031 
  0036 0042 0000 0049 0046 0053 002f 0048 
  0050 0046 0053 002f 004e 0054 0046 0053 
  002f 0065 0078 0046 0041 0054 002f 0051 
  004e 0058 0000 0046 0041 0054 0031 0032 
  002f 0046 0041 0054 0031 0036 002f 004f 
  0053 0032 002f 0041 0049 0058 002f 0065 
  0074 0063 0000 0051 004e 0058 002f 004f 
  0053 0039 002f 004f 0053 0032 002f 0065 
  0074 0063 0000 004f 0053 0032 0020 0042 
  006f 006f 0074 002f 0043 006f 0068 0065 
  0072 0065 006e 0074 0020 0073 0077 0061 
  0070 0000 0046 0041 0054 0033 0032 0020 
  0043 0048 0053 0000 0046 0041 0054 0033 
  0032 0020 004c 0042 0041 0000 0072 0065 
  0073 0065 0072 0076 0065 0064 0000 0046 
  0041 0054 0031 0036 0042 0020 004c 0042 
  0041 0000 0045 0078 0074 002e 0070 0061 
  0072 0074 002e 0020 004c 0042 0041 0000 
<\ sizesize <- 0f460000 > // 3910 bytes of payload.

//Section 2, 'voxdata_bss_2':
<0301:0002> (MEMORY; PAGE 1)
  0301 0002 sizesize 
  0000 0000 0100  //address, align, size
<\ sizesize <- 00060000 > // 6 bytes of payload.

<0a01:2230> (CRCCHECK)
  0a01 2230 sizesize 
  
<\ sizesize <- 00000000 > // 0 bytes of payload.

<0401:0000> (RELOCATION : SECTION NUMBER TO POKE TO)
  0401 0000 sizesize 
  // Relocations for section 0 follow.
<\ sizesize <- 00000000 > // 0 bytes of payload.
  // Relocations whose target (printblock_1) section is 1 (voxdata_1):
<0403:0001> (RELOCATION : INTERNAL)
  0403 0001 sizesize 
  0001 0005 //to 1 location add base of section 1.
<\ sizesize <- 00040000 > // 4 bytes of payload.
  // Relocations whose target (_myBuf) section is 2 (voxdata_bss_2):
<0403:0002> (RELOCATION : INTERNAL)
  0403 0002 sizesize 
  002f 000a 0013 0099 00ae 00b2 00d1 00da 00e3 00f5 0107 0110 0122 012b 0134 013e 0149 0155 015e 0167 0171 017a 0183 018c 0195 01a8 01ac 01c7 01d1 01d5 01db 01eb 01ef 01f4 01f8 0201 0205 020a 020f 0219 0223 022d 0231 02d4 02e3 02ec 0321 0331 //to 47 locations add base of section 2.
<\ sizesize <- 00600000 > // 96 bytes of payload.
  // Relocations whose target (_vo_printf) section is 0 (_vo_printf):
<0402:0000> (RELOCATION : EXTERNAL NAME '_vo_printf' CRUNCHED '_vo_printf')
  0402 0000 00160000 
  005f 0076 006f 005f 0070 0072 0069 006e 0074 0066 0000 
<\string>

<0404:0000> (RELOCATION : EXTERNAL)
  0404 0000 sizesize 
  003c 0010 0035 003a 0045 004e 0053 0075 007c 0091 0094 009f 00a4 00a7 00ba 00c2 00cf 00d8 00e1 00ea 00f2 00fc 0104 010e 0117 011f 0129 0132 013c 0146 0153 015c 0165 016f 0178 0181 018a 0193 019d 01a1 01b4 01bc 01cf 01ff 0217 0221 022b 0239 0245 0250 02f6 0317 0329 0340 0353 0359 0362 0366 036d 0374 0384 //to 60 locations add base of section 0.
<\ sizesize <- 007a0000 > // 122 bytes of payload.
  // Relocations whose target (_PrintBlock) section is 0 (votext):
<0403:0000> (RELOCATION : INTERNAL)
  0403 0000 sizesize 
  0013 001c 001f 0023 0038 0040 0048 0059 005c 006c 0070 0078 007a 007e 008d 01e6 0254 02fa 031b 037d //to 19 locations add base of section 0.
<\ sizesize <- 00280000 > // 40 bytes of payload.
  // Relocations whose target (emediac_2) section is 1 (voxdata_1):
<0403:0001> (RELOCATION : INTERNAL)
  0403 0001 sizesize 
  0002 001e 0360 //to 2 locations add base of section 1.
<\ sizesize <- 00060000 > // 6 bytes of payload.
  // Relocations whose target (block0x_3) section is 1 (voxdata_1):
<0403:0001> (RELOCATION : INTERNAL)
  0403 0001 sizesize 
  0002 0022 002f //to 2 locations add base of section 1.
<\ sizesize <- 00060000 > // 6 bytes of payload.
  // Relocations whose target (x_4) section is 1 (voxdata_1):
<0403:0001> (RELOCATION : INTERNAL)
  0403 0001 sizesize 
  0001 0044 //to 1 location add base of section 1.
<\ sizesize <- 00040000 > // 4 bytes of payload.
  // Relocations whose target (x_5) section is 1 (voxdata_1):
<0403:0001> (RELOCATION : INTERNAL)
  0403 0001 sizesize 
  0001 004d //to 1 location add base of section 1.
<\ sizesize <- 00040000 > // 4 bytes of payload.
  // Relocations whose target (String_6) section is 1 (voxdata_1):
<0403:0001> (RELOCATION : INTERNAL)
  0403 0001 sizesize 
  0001 0051 //to 1 location add base of section 1.
<\ sizesize <- 00040000 > // 4 bytes of payload.
  // Relocations whose target (String_8) section is 1 (voxdata_1):
<0403:0001> (RELOCATION : INTERNAL)
  0403 0001 sizesize 
  0002 0058 00a2 //to 2 locations add base of section 1.
<\ sizesize <- 00060000 > // 6 bytes of payload.
  // Relocations whose target (_isprint) section is 0 (_isprint):
<0402:0000> (RELOCATION : EXTERNAL NAME '_isprint' CRUNCHED '_isprint')
  0402 0000 00120000 
  005f 0069 0073 0070 0072 0069 006e 0074 0000 
<\string>

<0404:0000> (RELOCATION : EXTERNAL)
  0404 0000 sizesize 
  0001 0068 //to 1 location add base of section 0.
<\ sizesize <- 00040000 > // 4 bytes of payload.
  // Relocations whose target (c_7) section is 1 (voxdata_1):
<0403:0001> (RELOCATION : INTERNAL)
  0403 0001 sizesize 
  0003 0072 00c9 01c3 //to 3 locations add base of section 1.
<\ sizesize <- 00080000 > // 8 bytes of payload.
  // Relocations whose target (fat32sect_9) section is 1 (voxdata_1):
<0403:0001> (RELOCATION : INTERNAL)
  0403 0001 sizesize 
  0001 008f //to 1 location add base of section 1.
<\ sizesize <- 00040000 > // 4 bytes of payload.
  // Relocations whose target (jumpc_10) section is 1 (voxdata_1):
<0403:0001> (RELOCATION : INTERNAL)
  0403 0001 sizesize 
  0001 0093 //to 1 location add base of section 1.
<\ sizesize <- 00040000 > // 4 bytes of payload.
  // Relocations whose target (_PrintFat32) section is 0 (votext):
<0403:0000> (RELOCATION : INTERNAL)
  0403 0000 sizesize 
  0015 0097 00ad 00b0 00b7 00bf 00c4 00c6 00c8 00ee 0100 011b 014a 01a7 01aa 01b1 01b9 01be 01c0 01c2 034c 035e //to 21 locations add base of section 0.
<\ sizesize <- 002c0000 > // 44 bytes of payload.
  // Relocations whose target (_GetBE8) section is 0 (votext):
<0403:0000> (RELOCATION : INTERNAL)
  0403 0000 sizesize 
  001a 009a 00b3 00d3 00e5 0109 018e 01ad 01c5 01ca 01dd 01ed 01f2 01f6 01fa 0203 0208 020d 0212 022f 0234 02e4 0332 03aa 03ad 03b6 03ba //to 26 locations add base of section 0.
<\ sizesize <- 00360000 > // 54 bytes of payload.
  // Relocations whose target (x_11) section is 1 (voxdata_1):
<0403:0001> (RELOCATION : INTERNAL)
  0403 0001 sizesize 
  0003 009e 00b8 01b2 //to 3 locations add base of section 1.
<\ sizesize <- 00080000 > // 8 bytes of payload.
  // Relocations whose target (oemna_12) section is 1 (voxdata_1):
<0403:0001> (RELOCATION : INTERNAL)
  0403 0001 sizesize 
  0001 00a6 //to 1 location add base of section 1.
<\ sizesize <- 00040000 > // 4 bytes of payload.
  // Relocations whose target (String_13) section is 1 (voxdata_1):
<0403:0001> (RELOCATION : INTERNAL)
  0403 0001 sizesize 
  0002 00be 01b8 //to 2 locations add base of section 1.
<\ sizesize <- 00060000 > // 6 bytes of payload.
  // Relocations whose target (String_14) section is 1 (voxdata_1):
<0403:0001> (RELOCATION : INTERNAL)
  0403 0001 sizesize 
  0002 00c7 01c1 //to 2 locations add base of section 1.
<\ sizesize <- 00060000 > // 6 bytes of payload.
  // Relocations whose target (_GetLE16) section is 0 (votext):
<0403:0000> (RELOCATION : INTERNAL)
  0403 0000 sizesize 
  000e 00ca 00dc 00f7 0112 0124 012d 0157 0160 0173 017c 0185 01d3 03c0 03c3 //to 14 locations add base of section 0.
<\ sizesize <- 001e0000 > // 30 bytes of payload.
  // Relocations whose target (bytes_15) section is 1 (voxdata_1):
<0403:0001> (RELOCATION : INTERNAL)
  0403 0001 sizesize 
  0001 00ce //to 1 location add base of section 1.
<\ sizesize <- 00040000 > // 4 bytes of payload.
  // Relocations whose target (sector_16) section is 1 (voxdata_1):
<0403:0001> (RELOCATION : INTERNAL)
  0403 0001 sizesize 
  0001 00d7 //to 1 location add base of section 1.
<\ sizesize <- 00040000 > // 4 bytes of payload.
  // Relocations whose target (reserv_17) section is 1 (voxdata_1):
<0403:0001> (RELOCATION : INTERNAL)
  0403 0001 sizesize 
  0001 00e0 //to 1 location add base of section 1.
<\ sizesize <- 00040000 > // 4 bytes of payload.
  // Relocations whose target (number_18) section is 1 (voxdata_1):
<0403:0001> (RELOCATION : INTERNAL)
  0403 0001 sizesize 
  0001 00e9 //to 1 location add base of section 1.
<\ sizesize <- 00040000 > // 4 bytes of payload.
  // Relocations whose target (c_19) section is 1 (voxdata_1):
<0403:0001> (RELOCATION : INTERNAL)
  0403 0001 sizesize 
  0001 00f0 //to 1 location add base of section 1.
<\ sizesize <- 00040000 > // 4 bytes of payload.
  // Relocations whose target (bit_20) section is 1 (voxdata_1):
<0403:0001> (RELOCATION : INTERNAL)
  0403 0001 sizesize 
  0001 00fb //to 1 location add base of section 1.
<\ sizesize <- 00040000 > // 4 bytes of payload.
  // Relocations whose target (c_21) section is 1 (voxdata_1):
<0403:0001> (RELOCATION : INTERNAL)
  0403 0001 sizesize 
  0002 0102 011d //to 2 locations add base of section 1.
<\ sizesize <- 00060000 > // 6 bytes of payload.
  // Relocations whose target (media_22) section is 1 (voxdata_1):
<0403:0001> (RELOCATION : INTERNAL)
  0403 0001 sizesize 
  0001 010d //to 1 location add base of section 1.
<\ sizesize <- 00040000 > // 4 bytes of payload.
  // Relocations whose target (bit_23) section is 1 (voxdata_1):
<0403:0001> (RELOCATION : INTERNAL)
  0403 0001 sizesize 
  0001 0116 //to 1 location add base of section 1.
<\ sizesize <- 00040000 > // 4 bytes of payload.
  // Relocations whose target (sector_24) section is 1 (voxdata_1):
<0403:0001> (RELOCATION : INTERNAL)
  0403 0001 sizesize 
  0001 0128 //to 1 location add base of section 1.
<\ sizesize <- 00040000 > // 4 bytes of payload.
  // Relocations whose target (number_25) section is 1 (voxdata_1):
<0403:0001> (RELOCATION : INTERNAL)
  0403 0001 sizesize 
  0001 0131 //to 1 location add base of section 1.
<\ sizesize <- 00040000 > // 4 bytes of payload.
  // Relocations whose target (_GetLE32) section is 0 (votext):
<0403:0000> (RELOCATION : INTERNAL)
  0403 0000 sizesize 
  0009 0136 0140 014d 0169 0197 01d9 021b 0225 0322 //to 9 locations add base of section 0.
<\ sizesize <- 00140000 > // 20 bytes of payload.
  // Relocations whose target (number_26) section is 1 (voxdata_1):
<0403:0001> (RELOCATION : INTERNAL)
  0403 0001 sizesize 
  0001 013a //to 1 location add base of section 1.
<\ sizesize <- 00040000 > // 4 bytes of payload.
  // Relocations whose target (bit_27) section is 1 (voxdata_1):
<0403:0001> (RELOCATION : INTERNAL)
  0403 0001 sizesize 
  0001 0144 //to 1 location add base of section 1.
<\ sizesize <- 00040000 > // 4 bytes of payload.
  // Relocations whose target (bit_28) section is 1 (voxdata_1):
<0403:0001> (RELOCATION : INTERNAL)
  0403 0001 sizesize 
  0001 0151 //to 1 location add base of section 1.
<\ sizesize <- 00040000 > // 4 bytes of payload.
  // Relocations whose target (flags_29) section is 1 (voxdata_1):
<0403:0001> (RELOCATION : INTERNAL)
  0403 0001 sizesize 
  0001 015b //to 1 location add base of section 1.
<\ sizesize <- 00040000 > // 4 bytes of payload.
  // Relocations whose target (versio_30) section is 1 (voxdata_1):
<0403:0001> (RELOCATION : INTERNAL)
  0403 0001 sizesize 
  0001 0164 //to 1 location add base of section 1.
<\ sizesize <- 00040000 > // 4 bytes of payload.
  // Relocations whose target (cluste_31) section is 1 (voxdata_1):
<0403:0001> (RELOCATION : INTERNAL)
  0403 0001 sizesize 
  0001 016d //to 1 location add base of section 1.
<\ sizesize <- 00040000 > // 4 bytes of payload.
  // Relocations whose target (sector_32) section is 1 (voxdata_1):
<0403:0001> (RELOCATION : INTERNAL)
  0403 0001 sizesize 
  0001 0177 //to 1 location add base of section 1.
<\ sizesize <- 00040000 > // 4 bytes of payload.
  // Relocations whose target (sector_33) section is 1 (voxdata_1):
<0403:0001> (RELOCATION : INTERNAL)
  0403 0001 sizesize 
  0001 0180 //to 1 location add base of section 1.
<\ sizesize <- 00040000 > // 4 bytes of payload.
  // Relocations whose target (logica_34) section is 1 (voxdata_1):
<0403:0001> (RELOCATION : INTERNAL)
  0403 0001 sizesize 
  0001 0189 //to 1 location add base of section 1.
<\ sizesize <- 00040000 > // 4 bytes of payload.
  // Relocations whose target (extend_35) section is 1 (voxdata_1):
<0403:0001> (RELOCATION : INTERNAL)
  0403 0001 sizesize 
  0001 0192 //to 1 location add base of section 1.
<\ sizesize <- 00040000 > // 4 bytes of payload.
  // Relocations whose target (serial_36) section is 1 (voxdata_1):
<0403:0001> (RELOCATION : INTERNAL)
  0403 0001 sizesize 
  0001 019b //to 1 location add base of section 1.
<\ sizesize <- 00040000 > // 4 bytes of payload.
  // Relocations whose target (volume_37) section is 1 (voxdata_1):
<0403:0001> (RELOCATION : INTERNAL)
  0403 0001 sizesize 
  0001 019f //to 1 location add base of section 1.
<\ sizesize <- 00040000 > // 4 bytes of payload.
  // Relocations whose target (bootr_38) section is 1 (voxdata_1):
<0403:0001> (RELOCATION : INTERNAL)
  0403 0001 sizesize 
  0002 01ce 0238 //to 2 locations add base of section 1.
<\ sizesize <- 00060000 > // 6 bytes of payload.
  // Relocations whose target (fat32sect_39) section is 1 (voxdata_1):
<0403:0001> (RELOCATION : INTERNAL)
  0403 0001 sizesize 
  0001 01e8 //to 1 location add base of section 1.
<\ sizesize <- 00040000 > // 4 bytes of payload.
  // Relocations whose target (_vo_puts) section is 0 (votext):
<0403:0000> (RELOCATION : INTERNAL)
  0403 0000 sizesize 
  0008 01e9 038e 0391 0394 0397 039b 03d3 03e2 //to 8 locations add base of section 0.
<\ sizesize <- 00120000 > // 18 bytes of payload.
  // Relocations whose target (first_40) section is 1 (voxdata_1):
<0403:0001> (RELOCATION : INTERNAL)
  0403 0001 sizesize 
  0001 01fe //to 1 location add base of section 1.
<\ sizesize <- 00040000 > // 4 bytes of payload.
  // Relocations whose target (signat_41) section is 1 (voxdata_1):
<0403:0001> (RELOCATION : INTERNAL)
  0403 0001 sizesize 
  0001 0216 //to 1 location add base of section 1.
<\ sizesize <- 00040000 > // 4 bytes of payload.
  // Relocations whose target (number_42) section is 1 (voxdata_1):
<0403:0001> (RELOCATION : INTERNAL)
  0403 0001 sizesize 
  0001 021f //to 1 location add base of section 1.
<\ sizesize <- 00040000 > // 4 bytes of payload.
  // Relocations whose target (mostr_43) section is 1 (voxdata_1):
<0403:0001> (RELOCATION : INTERNAL)
  0403 0001 sizesize 
  0001 0229 //to 1 location add base of section 1.
<\ sizesize <- 00040000 > // 4 bytes of payload.
  // Relocations whose target (fatstart_44) section is 1 (voxdata_1):
<0403:0001> (RELOCATION : INTERNAL)
  0403 0001 sizesize 
  0001 0243 //to 1 location add base of section 1.
<\ sizesize <- 00040000 > // 4 bytes of payload.
  // Relocations whose target (fatroots_45) section is 1 (voxdata_1):
<0403:0001> (RELOCATION : INTERNAL)
  0403 0001 sizesize 
  0001 024b //to 1 location add base of section 1.
<\ sizesize <- 00040000 > // 4 bytes of payload.
  // Relocations whose target (paramspl_46) section is 1 (voxdata_1):
<0403:0001> (RELOCATION : INTERNAL)
  0403 0001 sizesize 
  0001 0271 //to 1 location add base of section 1.
<\ sizesize <- 00040000 > // 4 bytes of payload.
  // Relocations whose target (_main) section is 0 (votext):
<0403:0000> (RELOCATION : INTERNAL)
  0403 0000 sizesize 
  0023 0278 0284 028b 0291 0298 02a3 02a9 02ad 02b1 02ba 02c8 02ce 02d2 02de 02e1 02ea 02f4 0301 031e 032e 033a 0348 0351 0355 035f 0364 0368 036f 0376 037a 0381 0386 0388 038b 039c //to 35 locations add base of section 0.
<\ sizesize <- 00480000 > // 72 bytes of payload.
  // Relocations whose target (_strtol) section is 0 (_strtol):
<0402:0000> (RELOCATION : EXTERNAL NAME '_strtol' CRUNCHED '_strtol')
  0402 0000 00100000 
  005f 0073 0074 0072 0074 006f 006c 0000 
<\string>

<0404:0000> (RELOCATION : EXTERNAL)
  0404 0000 sizesize 
  0001 027c //to 1 location add base of section 0.
<\ sizesize <- 00040000 > // 4 bytes of payload.
  // Relocations whose target (h_47) section is 1 (voxdata_1):
<0403:0001> (RELOCATION : INTERNAL)
  0403 0001 sizesize 
  0001 027e //to 1 location add base of section 1.
<\ sizesize <- 00040000 > // 4 bytes of payload.
  // Relocations whose target (_strcmp) section is 0 (votext):
<0403:0000> (RELOCATION : INTERNAL)
  0403 0000 sizesize 
  0003 0280 0287 028d //to 3 locations add base of section 0.
<\ sizesize <- 00080000 > // 8 bytes of payload.
  // Relocations whose target (v_53) section is 1 (voxdata_1):
<0403:0001> (RELOCATION : INTERNAL)
  0403 0001 sizesize 
  0001 0288 //to 1 location add base of section 1.
<\ sizesize <- 00040000 > // 4 bytes of payload.
  // Relocations whose target (v_54) section is 1 (voxdata_1):
<0403:0001> (RELOCATION : INTERNAL)
  0403 0001 sizesize 
  0001 028e //to 1 location add base of section 1.
<\ sizesize <- 00040000 > // 4 bytes of payload.
  // Relocations whose target (_toupper) section is 0 (_toupper):
<0402:0000> (RELOCATION : EXTERNAL NAME '_toupper' CRUNCHED '_toupper')
  0402 0000 00120000 
  005f 0074 006f 0075 0070 0070 0065 0072 0000 
<\string>

<0404:0000> (RELOCATION : EXTERNAL)
  0404 0000 sizesize 
  0001 029a //to 1 location add base of section 0.
<\ sizesize <- 00040000 > // 4 bytes of payload.
  // Relocations whose target (_strlen) section is 0 (_strlen):
<0402:0000> (RELOCATION : EXTERNAL NAME '_strlen' CRUNCHED '_strlen')
  0402 0000 00100000 
  005f 0073 0074 0072 006c 0065 006e 0000 
<\string>

<0404:0000> (RELOCATION : EXTERNAL)
  0404 0000 sizesize 
  0002 029d 02c1 //to 2 locations add base of section 0.
<\ sizesize <- 00060000 > // 6 bytes of payload.
  // Relocations whose target (enodriv_55) section is 1 (voxdata_1):
<0403:0001> (RELOCATION : INTERNAL)
  0403 0001 sizesize 
  0002 02d1 0379 //to 2 locations add base of section 1.
<\ sizesize <- 00060000 > // 6 bytes of payload.
  // Relocations whose target (_GetBE16) section is 0 (votext):
<0403:0000> (RELOCATION : INTERNAL)
  0403 0000 sizesize 
  0001 02ee //to 1 location add base of section 0.
<\ sizesize <- 00040000 > // 4 bytes of payload.
  // Relocations whose target (foundnoth_64) section is 1 (voxdata_1):
<0403:0001> (RELOCATION : INTERNAL)
  0403 0001 sizesize 
  0001 02f3 //to 1 location add base of section 1.
<\ sizesize <- 00040000 > // 4 bytes of payload.
  // Relocations whose target (foundpart_59) section is 1 (voxdata_1):
<0403:0001> (RELOCATION : INTERNAL)
  0403 0001 sizesize 
  0001 0315 //to 1 location add base of section 1.
<\ sizesize <- 00040000 > // 4 bytes of payload.
  // Relocations whose target (partition_60) section is 1 (voxdata_1):
<0403:0001> (RELOCATION : INTERNAL)
  0403 0001 sizesize 
  0001 0328 //to 1 location add base of section 1.
<\ sizesize <- 00040000 > // 4 bytes of payload.
  // Relocations whose target (none_63) section is 1 (voxdata_1):
<0403:0001> (RELOCATION : INTERNAL)
  0403 0001 sizesize 
  0001 032d //to 1 location add base of section 1.
<\ sizesize <- 00040000 > // 4 bytes of payload.
  // Relocations whose target (_partTypes93ab90) section is 1 (voxdata_1):
<0403:0001> (RELOCATION : INTERNAL)
  0403 0001 sizesize 
  0001 0334 //to 1 location add base of section 1.
<\ sizesize <- 00040000 > // 4 bytes of payload.
  // Relocations whose target (unknown_61) section is 1 (voxdata_1):
<0403:0001> (RELOCATION : INTERNAL)
  0403 0001 sizesize 
  0001 033c //to 1 location add base of section 1.
<\ sizesize <- 00040000 > // 4 bytes of payload.
  // Relocations whose target (type0x_62) section is 1 (voxdata_1):
<0403:0001> (RELOCATION : INTERNAL)
  0403 0001 sizesize 
  0001 033f //to 1 location add base of section 1.
<\ sizesize <- 00040000 > // 4 bytes of payload.
  // Relocations whose target (fatfound_58) section is 1 (voxdata_1):
<0403:0001> (RELOCATION : INTERNAL)
  0403 0001 sizesize 
  0001 0357 //to 1 location add base of section 1.
<\ sizesize <- 00040000 > // 4 bytes of payload.
  // Relocations whose target (enonexi_57) section is 1 (voxdata_1):
<0403:0001> (RELOCATION : INTERNAL)
  0403 0001 sizesize 
  0001 036a //to 1 location add base of section 1.
<\ sizesize <- 00040000 > // 4 bytes of payload.
  // Relocations whose target (eillegal_56) section is 1 (voxdata_1):
<0403:0001> (RELOCATION : INTERNAL)
  0403 0001 sizesize 
  0001 0371 //to 1 location add base of section 1.
<\ sizesize <- 00040000 > // 4 bytes of payload.
  // Relocations whose target (usagefat_48) section is 1 (voxdata_1):
<0403:0001> (RELOCATION : INTERNAL)
  0403 0001 sizesize 
  0001 038d //to 1 location add base of section 1.
<\ sizesize <- 00040000 > // 4 bytes of payload.
  // Relocations whose target (xdriven_49) section is 1 (voxdata_1):
<0403:0001> (RELOCATION : INTERNAL)
  0403 0001 sizesize 
  0001 0390 //to 1 location add base of section 1.
<\ sizesize <- 00040000 > // 4 bytes of payload.
  // Relocations whose target (blknumpri_50) section is 1 (voxdata_1):
<0403:0001> (RELOCATION : INTERNAL)
  0403 0001 sizesize 
  0001 0393 //to 1 location add base of section 1.
<\ sizesize <- 00040000 > // 4 bytes of payload.
  // Relocations whose target (vvverb_51) section is 1 (voxdata_1):
<0403:0001> (RELOCATION : INTERNAL)
  0403 0001 sizesize 
  0001 0396 //to 1 location add base of section 1.
<\ sizesize <- 00040000 > // 4 bytes of payload.
  // Relocations whose target (hshowth_52) section is 1 (voxdata_1):
<0403:0001> (RELOCATION : INTERNAL)
  0403 0001 sizesize 
  0001 0399 //to 1 location add base of section 1.
<\ sizesize <- 00040000 > // 4 bytes of payload.
  // Relocations whose target (_GetBE8@1) section is 0 (votext):
<0403:0000> (RELOCATION : INTERNAL)
  0403 0000 sizesize 
  0001 03a2 //to 1 location add base of section 0.
<\ sizesize <- 00040000 > // 4 bytes of payload.
  // Relocations whose target (_strcmp@1) section is 0 (votext):
<0403:0000> (RELOCATION : INTERNAL)
  0403 0000 sizesize 
  0001 03e8 //to 1 location add base of section 0.
<\ sizesize <- 00040000 > // 4 bytes of payload.
  // Relocations whose target (_strcmp@0) section is 0 (votext):
<0403:0000> (RELOCATION : INTERNAL)
  0403 0000 sizesize 
  0001 03eb //to 1 location add base of section 0.
<\ sizesize <- 00040000 > // 4 bytes of payload.

<0401:0001> (RELOCATION : SECTION NUMBER TO POKE TO)
  0401 0001 sizesize 
  // Relocations for section 1 follow.
<\ sizesize <- 00000000 > // 0 bytes of payload.
  // Relocations whose target (String_65) section is 1 (voxdata_1):
<0403:0001> (RELOCATION : INTERNAL)
  0403 0001 sizesize 
  0001 0688 //to 1 location add base of section 1.
<\ sizesize <- 00040000 > // 4 bytes of payload.
  // Relocations whose target (String_66) section is 1 (voxdata_1):
<0403:0001> (RELOCATION : INTERNAL)
  0403 0001 sizesize 
  0001 0689 //to 1 location add base of section 1.
<\ sizesize <- 00040000 > // 4 bytes of payload.
  // Relocations whose target (String_67) section is 1 (voxdata_1):
<0403:0001> (RELOCATION : INTERNAL)
  0403 0001 sizesize 
  0001 068a //to 1 location add base of section 1.
<\ sizesize <- 00040000 > // 4 bytes of payload.
  // Relocations whose target (String_68) section is 1 (voxdata_1):
<0403:0001> (RELOCATION : INTERNAL)
  0403 0001 sizesize 
  0001 068b //to 1 location add base of section 1.
<\ sizesize <- 00040000 > // 4 bytes of payload.
  // Relocations whose target (String_69) section is 1 (voxdata_1):
<0403:0001> (RELOCATION : INTERNAL)
  0403 0001 sizesize 
  0001 068c //to 1 location add base of section 1.
<\ sizesize <- 00040000 > // 4 bytes of payload.
  // Relocations whose target (String_70) section is 1 (voxdata_1):
<0403:0001> (RELOCATION : INTERNAL)
  0403 0001 sizesize 
  0001 068d //to 1 location add base of section 1.
<\ sizesize <- 00040000 > // 4 bytes of payload.
  // Relocations whose target (String_71) section is 1 (voxdata_1):
<0403:0001> (RELOCATION : INTERNAL)
  0403 0001 sizesize 
  0001 068e //to 1 location add base of section 1.
<\ sizesize <- 00040000 > // 4 bytes of payload.
  // Relocations whose target (String_72) section is 1 (voxdata_1):
<0403:0001> (RELOCATION : INTERNAL)
  0403 0001 sizesize 
  0001 068f //to 1 location add base of section 1.
<\ sizesize <- 00040000 > // 4 bytes of payload.
  // Relocations whose target (String_73) section is 1 (voxdata_1):
<0403:0001> (RELOCATION : INTERNAL)
  0403 0001 sizesize 
  0001 0690 //to 1 location add base of section 1.
<\ sizesize <- 00040000 > // 4 bytes of payload.
  // Relocations whose target (String_74) section is 1 (voxdata_1):
<0403:0001> (RELOCATION : INTERNAL)
  0403 0001 sizesize 
  0001 0691 //to 1 location add base of section 1.
<\ sizesize <- 00040000 > // 4 bytes of payload.
  // Relocations whose target (String_75) section is 1 (voxdata_1):
<0403:0001> (RELOCATION : INTERNAL)
  0403 0001 sizesize 
  0001 0692 //to 1 location add base of section 1.
<\ sizesize <- 00040000 > // 4 bytes of payload.
  // Relocations whose target (String_76) section is 1 (voxdata_1):
<0403:0001> (RELOCATION : INTERNAL)
  0403 0001 sizesize 
  0001 0693 //to 1 location add base of section 1.
<\ sizesize <- 00040000 > // 4 bytes of payload.
  // Relocations whose target (String_77) section is 1 (voxdata_1):
<0403:0001> (RELOCATION : INTERNAL)
  0403 0001 sizesize 
  0001 0694 //to 1 location add base of section 1.
<\ sizesize <- 00040000 > // 4 bytes of payload.
  // Relocations whose target (String_78) section is 1 (voxdata_1):
<0403:0001> (RELOCATION : INTERNAL)
  0403 0001 sizesize 
  0001 0695 //to 1 location add base of section 1.
<\ sizesize <- 00040000 > // 4 bytes of payload.
  // Relocations whose target (String_79) section is 1 (voxdata_1):
<0403:0001> (RELOCATION : INTERNAL)
  0403 0001 sizesize 
  0001 0696 //to 1 location add base of section 1.
<\ sizesize <- 00040000 > // 4 bytes of payload.
  // Relocations whose target (String_80) section is 1 (voxdata_1):
<0403:0001> (RELOCATION : INTERNAL)
  0403 0001 sizesize 
  0001 0697 //to 1 location add base of section 1.
<\ sizesize <- 00040000 > // 4 bytes of payload.

<0a01:88dc> (CRCCHECK)
  0a01 88dc sizesize 
  
<\ sizesize <- 00000000 > // 0 bytes of payload.
//From Emulation-Debug\main.o: 
<0800:0000> (SYMBOL '_PrintBlock') (section=0, offset=0 (0x0000))
  0800 0000 00180000 
  005f 0050 0072 0069 006e 0074 0042 006c 006f 0063 006b 0000 
<\string>
//From Emulation-Debug\main.o: 
<0800:0080> (SYMBOL '_PrintFat32') (section=0, offset=128 (0x0080))
  0800 0080 00180000 
  005f 0050 0072 0069 006e 0074 0046 0061 0074 0033 0032 0000 
<\string>
//From Emulation-Debug\main.o: 
<0800:0261> (SYMBOL '_main') (section=0, offset=609 (0x0261))
  0800 0261 000c0000 
  005f 006d 0061 0069 006e 0000 
<\string>
//From Emulation-Debug\bytemem.o: 
<0800:039d> (SYMBOL '_GetBE8') (section=0, offset=925 (0x039d))
  0800 039d 00100000 
  005f 0047 0065 0074 0042 0045 0038 0000 
<\string>
//From Emulation-Debug\bytemem.o: 
<0800:03a8> (SYMBOL '_GetLE16') (section=0, offset=936 (0x03a8))
  0800 03a8 00120000 
  005f 0047 0065 0074 004c 0045 0031 0036 0000 
<\string>
//From Emulation-Debug\bytemem.o: 
<0800:03bf> (SYMBOL '_GetLE32') (section=0, offset=959 (0x03bf))
  0800 03bf 00120000 
  005f 0047 0065 0074 004c 0045 0033 0032 0000 
<\string>
//From C:\Program Files (x86)\VSIDE\libvs1005h_vsos3/libvsos03.a:/452: 
<0800:03c8> (SYMBOL '_vo_puts') (section=0, offset=968 (0x03c8))
  0800 03c8 00120000 
  005f 0076 006f 005f 0070 0075 0074 0073 0000 
<\string>
//From C:\Program Files (x86)\VSIDE\libvs1005h_vsos3/libc.a:_strcmp.o: 
<0800:03e4> (SYMBOL '_strcmp') (section=0, offset=996 (0x03e4))
  0800 03e4 00100000 
  005f 0073 0074 0072 0063 006d 0070 0000 
<\string>
//From Emulation-Debug\bytemem.o: 
<0800:03b4> (SYMBOL '_GetBE16') (section=0, offset=948 (0x03b4))
  0800 03b4 00120000 
  005f 0047 0065 0074 0042 0045 0031 0036 0000 
<\string>
//From Emulation-Debug\bytemem.o: 
<0800:03bf> (SYMBOL '_GetLE32') (section=0, offset=959 (0x03bf))
  0800 03bf 00120000 
  005f 0047 0065 0074 004c 0045 0033 0032 0000 
<\string>
//From Emulation-Debug\bytemem.o: 
<0800:03a8> (SYMBOL '_GetLE16') (section=0, offset=936 (0x03a8))
  0800 03a8 00120000 
  005f 0047 0065 0074 004c 0045 0031 0036 0000 
<\string>
//From Emulation-Debug\bytemem.o: 
<0800:03a5> (SYMBOL '_GetBE8@1') (section=0, offset=933 (0x03a5))
  0800 03a5 00140000 
  005f 0047 0065 0074 0042 0045 0038 0040 0031 0000 
<\string>
//From Emulation-Debug\bytemem.o: 
<0800:039d> (SYMBOL '_GetBE8') (section=0, offset=925 (0x039d))
  0800 039d 00100000 
  005f 0047 0065 0074 0042 0045 0038 0000 
<\string>
//From Emulation-Debug\bytemem.o: 
<0800:03b4> (SYMBOL '_GetBE16') (section=0, offset=948 (0x03b4))
  0800 03b4 00120000 
  005f 0047 0065 0074 0042 0045 0031 0036 0000 
<\string>
//From C:\Program Files (x86)\VSIDE\libvs1005h_vsos3/libvsos03.a:/452: 
<0800:03c8> (SYMBOL '_vo_puts') (section=0, offset=968 (0x03c8))
  0800 03c8 00120000 
  005f 0076 006f 005f 0070 0075 0074 0073 0000 
<\string>
//From C:\Program Files (x86)\VSIDE\libvs1005h_vsos3/libc.a:_strcmp.o: 
<0800:03e4> (SYMBOL '_strcmp') (section=0, offset=996 (0x03e4))
  0800 03e4 00100000 
  005f 0073 0074 0072 0063 006d 0070 0000 
<\string>
//From C:\Program Files (x86)\VSIDE\libvs1005h_vsos3/libc.a:_strcmp.o: 
<0800:03e7> (SYMBOL '_strcmp@0') (section=0, offset=999 (0x03e7))
  0800 03e7 00140000 
  005f 0073 0074 0072 0063 006d 0070 0040 0030 0000 
<\string>
//From C:\Program Files (x86)\VSIDE\libvs1005h_vsos3/libc.a:_strcmp.o: 
<0800:03ed> (SYMBOL '_strcmp@1') (section=0, offset=1005 (0x03ed))
  0800 03ed 00140000 
  005f 0073 0074 0072 0063 006d 0070 0040 0031 0000 
<\string>
//From Emulation-Debug\main.o: 
<0801:0000> (SYMBOL 'printblock_1') (section=1, offset=0 (0x0000))
  0801 0000 001a0000 
  0070 0072 0069 006e 0074 0062 006c 006f 0063 006b 005f 0031 0000 
<\string>
//From Emulation-Debug\main.o: 
<0801:0022> (SYMBOL 'emediac_2') (section=1, offset=34 (0x0022))
  0801 0022 00140000 
  0065 006d 0065 0064 0069 0061 0063 005f 0032 0000 
<\string>
//From Emulation-Debug\main.o: 
<0801:003b> (SYMBOL 'block0x_3') (section=1, offset=59 (0x003b))
  0801 003b 00140000 
  0062 006c 006f 0063 006b 0030 0078 005f 0033 0000 
<\string>
//From Emulation-Debug\main.o: 
<0801:0050> (SYMBOL 'x_4') (section=1, offset=80 (0x0050))
  0801 0050 00080000 
  0078 005f 0034 0000 
<\string>
//From Emulation-Debug\main.o: 
<0801:005a> (SYMBOL 'x_5') (section=1, offset=90 (0x005a))
  0801 005a 00080000 
  0078 005f 0035 0000 
<\string>
//From Emulation-Debug\main.o: 
<0801:0060> (SYMBOL 'String_6') (section=1, offset=96 (0x0060))
  0801 0060 00120000 
  0053 0074 0072 0069 006e 0067 005f 0036 0000 
<\string>
//From Emulation-Debug\main.o: 
<0801:0062> (SYMBOL 'c_7') (section=1, offset=98 (0x0062))
  0801 0062 00080000 
  0063 005f 0037 0000 
<\string>
//From Emulation-Debug\main.o: 
<0801:0065> (SYMBOL 'String_8') (section=1, offset=101 (0x0065))
  0801 0065 00120000 
  0053 0074 0072 0069 006e 0067 005f 0038 0000 
<\string>
//From Emulation-Debug\main.o: 
<0801:0067> (SYMBOL 'fat32sect_9') (section=1, offset=103 (0x0067))
  0801 0067 00180000 
  0066 0061 0074 0033 0032 0073 0065 0063 0074 005f 0039 0000 
<\string>
//From Emulation-Debug\main.o: 
<0801:0078> (SYMBOL 'jumpc_10') (section=1, offset=120 (0x0078))
  0801 0078 00120000 
  006a 0075 006d 0070 0063 005f 0031 0030 0000 
<\string>
//From Emulation-Debug\main.o: 
<0801:008e> (SYMBOL 'x_11') (section=1, offset=142 (0x008e))
  0801 008e 000a0000 
  0078 005f 0031 0031 0000 
<\string>
//From Emulation-Debug\main.o: 
<0801:0094> (SYMBOL 'oemna_12') (section=1, offset=148 (0x0094))
  0801 0094 00120000 
  006f 0065 006d 006e 0061 005f 0031 0032 0000 
<\string>
//From Emulation-Debug\main.o: 
<0801:00a3> (SYMBOL 'String_13') (section=1, offset=163 (0x00a3))
  0801 00a3 00140000 
  0053 0074 0072 0069 006e 0067 005f 0031 0033 0000 
<\string>
//From Emulation-Debug\main.o: 
<0801:00a6> (SYMBOL 'String_14') (section=1, offset=166 (0x00a6))
  0801 00a6 00140000 
  0053 0074 0072 0069 006e 0067 005f 0031 0034 0000 
<\string>
//From Emulation-Debug\main.o: 
<0801:00a9> (SYMBOL 'bytes_15') (section=1, offset=169 (0x00a9))
  0801 00a9 00120000 
  0062 0079 0074 0065 0073 005f 0031 0035 0000 
<\string>
//From Emulation-Debug\main.o: 
<0801:00c2> (SYMBOL 'sector_16') (section=1, offset=194 (0x00c2))
  0801 00c2 00140000 
  0073 0065 0063 0074 006f 0072 005f 0031 0036 0000 
<\string>
//From Emulation-Debug\main.o: 
<0801:00de> (SYMBOL 'reserv_17') (section=1, offset=222 (0x00de))
  0801 00de 00140000 
  0072 0065 0073 0065 0072 0076 005f 0031 0037 0000 
<\string>
//From Emulation-Debug\main.o: 
<0801:00f7> (SYMBOL 'number_18') (section=1, offset=247 (0x00f7))
  0801 00f7 00140000 
  006e 0075 006d 0062 0065 0072 005f 0031 0038 0000 
<\string>
//From Emulation-Debug\main.o: 
<0801:010e> (SYMBOL 'c_19') (section=1, offset=270 (0x010e))
  0801 010e 000a0000 
  0063 005f 0031 0039 0000 
<\string>
//From Emulation-Debug\main.o: 
<0801:0138> (SYMBOL 'bit_20') (section=1, offset=312 (0x0138))
  0801 0138 000e0000 
  0062 0069 0074 005f 0032 0030 0000 
<\string>
//From Emulation-Debug\main.o: 
<0801:0161> (SYMBOL 'c_21') (section=1, offset=353 (0x0161))
  0801 0161 000a0000 
  0063 005f 0032 0031 0000 
<\string>
//From Emulation-Debug\main.o: 
<0801:017a> (SYMBOL 'media_22') (section=1, offset=378 (0x017a))
  0801 017a 00120000 
  006d 0065 0064 0069 0061 005f 0032 0032 0000 
<\string>
//From Emulation-Debug\main.o: 
<0801:01a4> (SYMBOL 'bit_23') (section=1, offset=420 (0x01a4))
  0801 01a4 000e0000 
  0062 0069 0074 005f 0032 0033 0000 
<\string>
//From Emulation-Debug\main.o: 
<0801:01bc> (SYMBOL 'sector_24') (section=1, offset=444 (0x01bc))
  0801 01bc 00140000 
  0073 0065 0063 0074 006f 0072 005f 0032 0034 0000 
<\string>
//From Emulation-Debug\main.o: 
<0801:01d6> (SYMBOL 'number_25') (section=1, offset=470 (0x01d6))
  0801 01d6 00140000 
  006e 0075 006d 0062 0065 0072 005f 0032 0035 0000 
<\string>
//From Emulation-Debug\main.o: 
<0801:01ee> (SYMBOL 'number_26') (section=1, offset=494 (0x01ee))
  0801 01ee 00140000 
  006e 0075 006d 0062 0065 0072 005f 0032 0036 0000 
<\string>
//From Emulation-Debug\main.o: 
<0801:021d> (SYMBOL 'bit_27') (section=1, offset=541 (0x021d))
  0801 021d 000e0000 
  0062 0069 0074 005f 0032 0037 0000 
<\string>
//From Emulation-Debug\main.o: 
<0801:024c> (SYMBOL 'bit_28') (section=1, offset=588 (0x024c))
  0801 024c 000e0000 
  0062 0069 0074 005f 0032 0038 0000 
<\string>
//From Emulation-Debug\main.o: 
<0801:0276> (SYMBOL 'flags_29') (section=1, offset=630 (0x0276))
  0801 0276 00120000 
  0066 006c 0061 0067 0073 005f 0032 0039 0000 
<\string>
//From Emulation-Debug\main.o: 
<0801:0286> (SYMBOL 'versio_30') (section=1, offset=646 (0x0286))
  0801 0286 00140000 
  0076 0065 0072 0073 0069 006f 005f 0033 0030 0000 
<\string>
//From Emulation-Debug\main.o: 
<0801:02a7> (SYMBOL 'cluste_31') (section=1, offset=679 (0x02a7))
  0801 02a7 00140000 
  0063 006c 0075 0073 0074 0065 005f 0033 0031 0000 
<\string>
//From Emulation-Debug\main.o: 
<0801:02e2> (SYMBOL 'sector_32') (section=1, offset=738 (0x02e2))
  0801 02e2 00140000 
  0073 0065 0063 0074 006f 0072 005f 0033 0032 0000 
<\string>
//From Emulation-Debug\main.o: 
<0801:031d> (SYMBOL 'sector_33') (section=1, offset=797 (0x031d))
  0801 031d 00140000 
  0073 0065 0063 0074 006f 0072 005f 0033 0033 0000 
<\string>
//From Emulation-Debug\main.o: 
<0801:034d> (SYMBOL 'logica_34') (section=1, offset=845 (0x034d))
  0801 034d 00140000 
  006c 006f 0067 0069 0063 0061 005f 0033 0034 0000 
<\string>
//From Emulation-Debug\main.o: 
<0801:0377> (SYMBOL 'extend_35') (section=1, offset=887 (0x0377))
  0801 0377 00140000 
  0065 0078 0074 0065 006e 0064 005f 0033 0035 0000 
<\string>
//From Emulation-Debug\main.o: 
<0801:039b> (SYMBOL 'serial_36') (section=1, offset=923 (0x039b))
  0801 039b 00140000 
  0073 0065 0072 0069 0061 006c 005f 0033 0036 0000 
<\string>
//From Emulation-Debug\main.o: 
<0801:03c3> (SYMBOL 'volume_37') (section=1, offset=963 (0x03c3))
  0801 03c3 00140000 
  0076 006f 006c 0075 006d 0065 005f 0033 0037 0000 
<\string>
//From Emulation-Debug\main.o: 
<0801:03e1> (SYMBOL 'bootr_38') (section=1, offset=993 (0x03e1))
  0801 03e1 00120000 
  0062 006f 006f 0074 0072 005f 0033 0038 0000 
<\string>
//From Emulation-Debug\main.o: 
<0801:0416> (SYMBOL 'fat32sect_39') (section=1, offset=1046 (0x0416))
  0801 0416 001a0000 
  0066 0061 0074 0033 0032 0073 0065 0063 0074 005f 0033 0039 0000 
<\string>
//From Emulation-Debug\main.o: 
<0801:0426> (SYMBOL 'first_40') (section=1, offset=1062 (0x0426))
  0801 0426 00120000 
  0066 0069 0072 0073 0074 005f 0034 0030 0000 
<\string>
//From Emulation-Debug\main.o: 
<0801:046d> (SYMBOL 'signat_41') (section=1, offset=1133 (0x046d))
  0801 046d 00140000 
  0073 0069 0067 006e 0061 0074 005f 0034 0031 0000 
<\string>
//From Emulation-Debug\main.o: 
<0801:04bf> (SYMBOL 'number_42') (section=1, offset=1215 (0x04bf))
  0801 04bf 00140000 
  006e 0075 006d 0062 0065 0072 005f 0034 0032 0000 
<\string>
//From Emulation-Debug\main.o: 
<0801:04e4> (SYMBOL 'mostr_43') (section=1, offset=1252 (0x04e4))
  0801 04e4 00120000 
  006d 006f 0073 0074 0072 005f 0034 0033 0000 
<\string>
//From Emulation-Debug\main.o: 
<0801:0511> (SYMBOL 'fatstart_44') (section=1, offset=1297 (0x0511))
  0801 0511 00180000 
  0066 0061 0074 0073 0074 0061 0072 0074 005f 0034 0034 0000 
<\string>
//From Emulation-Debug\main.o: 
<0801:053b> (SYMBOL 'fatroots_45') (section=1, offset=1339 (0x053b))
  0801 053b 00180000 
  0066 0061 0074 0072 006f 006f 0074 0073 005f 0034 0035 0000 
<\string>
//From Emulation-Debug\main.o: 
<0801:0558> (SYMBOL 'paramspl_46') (section=1, offset=1368 (0x0558))
  0801 0558 00180000 
  0070 0061 0072 0061 006d 0073 0070 006c 005f 0034 0036 0000 
<\string>
//From Emulation-Debug\main.o: 
<0801:0561> (SYMBOL 'h_47') (section=1, offset=1377 (0x0561))
  0801 0561 000a0000 
  0068 005f 0034 0037 0000 
<\string>
//From Emulation-Debug\main.o: 
<0801:0564> (SYMBOL 'usagefat_48') (section=1, offset=1380 (0x0564))
  0801 0564 00180000 
  0075 0073 0061 0067 0065 0066 0061 0074 005f 0034 0038 0000 
<\string>
//From Emulation-Debug\main.o: 
<0801:058a> (SYMBOL 'xdriven_49') (section=1, offset=1418 (0x058a))
  0801 058a 00160000 
  0078 0064 0072 0069 0076 0065 006e 005f 0034 0039 0000 
<\string>
//From Emulation-Debug\main.o: 
<0801:0598> (SYMBOL 'blknumpri_50') (section=1, offset=1432 (0x0598))
  0801 0598 001a0000 
  0062 006c 006b 006e 0075 006d 0070 0072 0069 005f 0035 0030 0000 
<\string>
//From Emulation-Debug\main.o: 
<0801:05be> (SYMBOL 'vvverb_51') (section=1, offset=1470 (0x05be))
  0801 05be 00140000 
  0076 0076 0076 0065 0072 0062 005f 0035 0031 0000 
<\string>
//From Emulation-Debug\main.o: 
<0801:05d3> (SYMBOL 'hshowth_52') (section=1, offset=1491 (0x05d3))
  0801 05d3 00160000 
  0068 0073 0068 006f 0077 0074 0068 005f 0035 0032 0000 
<\string>
//From Emulation-Debug\main.o: 
<0801:05e6> (SYMBOL 'v_53') (section=1, offset=1510 (0x05e6))
  0801 05e6 000a0000 
  0076 005f 0035 0033 0000 
<\string>
//From Emulation-Debug\main.o: 
<0801:05e9> (SYMBOL 'v_54') (section=1, offset=1513 (0x05e9))
  0801 05e9 000a0000 
  0076 005f 0035 0034 0000 
<\string>
//From Emulation-Debug\main.o: 
<0801:05ec> (SYMBOL 'enodriv_55') (section=1, offset=1516 (0x05ec))
  0801 05ec 00160000 
  0065 006e 006f 0064 0072 0069 0076 005f 0035 0035 0000 
<\string>
//From Emulation-Debug\main.o: 
<0801:060a> (SYMBOL 'eillegal_56') (section=1, offset=1546 (0x060a))
  0801 060a 00180000 
  0065 0069 006c 006c 0065 0067 0061 006c 005f 0035 0036 0000 
<\string>
//From Emulation-Debug\main.o: 
<0801:0626> (SYMBOL 'enonexi_57') (section=1, offset=1574 (0x0626))
  0801 0626 00160000 
  0065 006e 006f 006e 0065 0078 0069 005f 0035 0037 0000 
<\string>
//From Emulation-Debug\main.o: 
<0801:0642> (SYMBOL 'fatfound_58') (section=1, offset=1602 (0x0642))
  0801 0642 00180000 
  0066 0061 0074 0066 006f 0075 006e 0064 005f 0035 0038 0000 
<\string>
//From Emulation-Debug\main.o: 
<0801:065b> (SYMBOL 'foundpart_59') (section=1, offset=1627 (0x065b))
  0801 065b 001a0000 
  0066 006f 0075 006e 0064 0070 0061 0072 0074 005f 0035 0039 0000 
<\string>
//From Emulation-Debug\main.o: 
<0801:0672> (SYMBOL 'partition_60') (section=1, offset=1650 (0x0672))
  0801 0672 001a0000 
  0070 0061 0072 0074 0069 0074 0069 006f 006e 005f 0036 0030 0000 
<\string>
//From Emulation-Debug\main.o: 
<0801:0688> (SYMBOL '_partTypes93ab90') (section=1, offset=1672 (0x0688))
  0801 0688 00220000 
  005f 0070 0061 0072 0074 0054 0079 0070 0065 0073 0039 0033 0061 0062 0039 0030 0000 
<\string>
//From Emulation-Debug\main.o: 
<0801:0698> (SYMBOL 'unknown_61') (section=1, offset=1688 (0x0698))
  0801 0698 00160000 
  0075 006e 006b 006e 006f 0077 006e 005f 0036 0031 0000 
<\string>
//From Emulation-Debug\main.o: 
<0801:06a0> (SYMBOL 'type0x_62') (section=1, offset=1696 (0x06a0))
  0801 06a0 00140000 
  0074 0079 0070 0065 0030 0078 005f 0036 0032 0000 
<\string>
//From Emulation-Debug\main.o: 
<0801:06b4> (SYMBOL 'none_63') (section=1, offset=1716 (0x06b4))
  0801 06b4 00100000 
  006e 006f 006e 0065 005f 0036 0033 0000 
<\string>
//From Emulation-Debug\main.o: 
<0801:06bd> (SYMBOL 'foundnoth_64') (section=1, offset=1725 (0x06bd))
  0801 06bd 001a0000 
  0066 006f 0075 006e 0064 006e 006f 0074 0068 005f 0036 0034 0000 
<\string>
//From Emulation-Debug\main.o: 
<0801:06d7> (SYMBOL 'String_65') (section=1, offset=1751 (0x06d7))
  0801 06d7 00140000 
  0053 0074 0072 0069 006e 0067 005f 0036 0035 0000 
<\string>
//From Emulation-Debug\main.o: 
<0801:06dd> (SYMBOL 'String_66') (section=1, offset=1757 (0x06dd))
  0801 06dd 00140000 
  0053 0074 0072 0069 006e 0067 005f 0036 0036 0000 
<\string>
//From Emulation-Debug\main.o: 
<0801:06e3> (SYMBOL 'String_67') (section=1, offset=1763 (0x06e3))
  0801 06e3 00140000 
  0053 0074 0072 0069 006e 0067 005f 0036 0037 0000 
<\string>
//From Emulation-Debug\main.o: 
<0801:06ee> (SYMBOL 'String_68') (section=1, offset=1774 (0x06ee))
  0801 06ee 00140000 
  0053 0074 0072 0069 006e 0067 005f 0036 0038 0000 
<\string>
//From Emulation-Debug\main.o: 
<0801:06f8> (SYMBOL 'String_69') (section=1, offset=1784 (0x06f8))
  0801 06f8 00140000 
  0053 0074 0072 0069 006e 0067 005f 0036 0039 0000 
<\string>
//From Emulation-Debug\main.o: 
<0801:06fe> (SYMBOL 'String_70') (section=1, offset=1790 (0x06fe))
  0801 06fe 00140000 
  0053 0074 0072 0069 006e 0067 005f 0037 0030 0000 
<\string>
//From Emulation-Debug\main.o: 
<0801:070c> (SYMBOL 'String_71') (section=1, offset=1804 (0x070c))
  0801 070c 00140000 
  0053 0074 0072 0069 006e 0067 005f 0037 0031 0000 
<\string>
//From Emulation-Debug\main.o: 
<0801:0713> (SYMBOL 'String_72') (section=1, offset=1811 (0x0713))
  0801 0713 00140000 
  0053 0074 0072 0069 006e 0067 005f 0037 0032 0000 
<\string>
//From Emulation-Debug\main.o: 
<0801:072b> (SYMBOL 'String_73') (section=1, offset=1835 (0x072b))
  0801 072b 00140000 
  0053 0074 0072 0069 006e 0067 005f 0037 0033 0000 
<\string>
//From Emulation-Debug\main.o: 
<0801:0743> (SYMBOL 'String_74') (section=1, offset=1859 (0x0743))
  0801 0743 00140000 
  0053 0074 0072 0069 006e 0067 005f 0037 0034 0000 
<\string>
//From Emulation-Debug\main.o: 
<0801:0753> (SYMBOL 'String_75') (section=1, offset=1875 (0x0753))
  0801 0753 00140000 
  0053 0074 0072 0069 006e 0067 005f 0037 0035 0000 
<\string>
//From Emulation-Debug\main.o: 
<0801:076a> (SYMBOL 'String_76') (section=1, offset=1898 (0x076a))
  0801 076a 00140000 
  0053 0074 0072 0069 006e 0067 005f 0037 0036 0000 
<\string>
//From Emulation-Debug\main.o: 
<0801:0774> (SYMBOL 'String_77') (section=1, offset=1908 (0x0774))
  0801 0774 00140000 
  0053 0074 0072 0069 006e 0067 005f 0037 0037 0000 
<\string>
//From Emulation-Debug\main.o: 
<0801:077e> (SYMBOL 'String_78') (section=1, offset=1918 (0x077e))
  0801 077e 00140000 
  0053 0074 0072 0069 006e 0067 005f 0037 0038 0000 
<\string>
//From Emulation-Debug\main.o: 
<0801:0787> (SYMBOL 'String_79') (section=1, offset=1927 (0x0787))
  0801 0787 00140000 
  0053 0074 0072 0069 006e 0067 005f 0037 0039 0000 
<\string>
//From Emulation-Debug\main.o: 
<0801:0792> (SYMBOL 'String_80') (section=1, offset=1938 (0x0792))
  0801 0792 00140000 
  0053 0074 0072 0069 006e 0067 005f 0038 0030 0000 
<\string>
//From Emulation-Debug\main.o: 
<0802:0000> (SYMBOL '_myBuf') (section=2, offset=0 (0x0000))
  0802 0000 000e0000 
  005f 006d 0079 0042 0075 0066 0000 
<\string>

<0a00:de0f> (CRCCHECK)
  0a00 de0f sizesize 
  
<\ sizesize <- 00000000 > // 0 bytes of payload.

<0900:0000> (ENTRYLIST)
  0900 0000 sizesize 
  6d61 0000 0261  // _main
  
<\ sizesize <- 00060000 > // 6 bytes of payload.

<0a01:78c8> (CRCCHECK)
  0a01 78c8 sizesize 
  
<\ sizesize <- 00000000 > // 0 bytes of payload.
00000000 ffffffff 
<0a00:fffe> (CRCCHECK)
  0a00 fffe sizesize 
  
<\ sizesize <- 00000000 > // 0 bytes of payload.
