56444532
<0100:0001> (STRING 'Dynamic App')
  0100 0001 00180000 
  0044 0079 006e 0061 006d 0069 0063 0020 0041 0070 0070 0000 
<\string>

<0100:0005> (STRING '6/14/2018 12:56:04 PM')
  0100 0005 002c0000 
  0036 002f 0031 0034 002f 0032 0030 0031 0038 0020 0031 0032 003a 0035 0036 003a 0030 0034 0020 0050 004d 0000 
<\string>

<0a00:a60d> (CRCCHECK)
  0a00 a60d sizesize 
  
<\ sizesize <- 00000000 > // 0 bytes of payload.

//Section 0, 'votext':
<0300:0000> (MEMORY; PAGE 0)
  0300 0000 sizesize 
  0000 0000 02bd  //address, align, size
  00000a57 36130024 3e120024 3e05b814 36850024 3e007842 3e00f844 00002004 
  00000a03 3e017846 00000fc5 3e01f850 3e047812 00022052 b88212cc 34600024 
  2b010502 28000b00 34f30024 00020006 30001bcc 606e0024 00000024 28001801 
  00000024 30000024 604e0024 00000024 28001001 00000024 3200184c 3e100024 
  30000024 291ffc40 3e000024 613e1b8c 000009c6 28000a41 00000024 619e4046 
  f40041c1 426c804c f4004191 39000024 3000184c 60800024 00000900 280004d5 
  00000024 29000000 3e000024 34131bcc f4004500 36f45812 36f1d810 36f15806 
  36f0d804 36f05802 300913cc 34059014 36f30024 36f20024 20000000 00000024 
  3201984c b78e3846 f4004006 1ffffe80 af0e0024 00003000 c0600024 291ffc40 
  3e000024 613e1b8c 000009c6 280013c1 00000024 619e4046 f40041c1 426c984c 
  f4004191 39000024 32000024 3e100024 30000024 b0500024 c4000024 291ffc40 
  3e000024 613e1b8c 000009c6 28000a41 00000024 619e4046 28000a40 f40041c1 
  3201984c b78e3846 f4004006 1ffffd00 af0e0024 00003800 c0600024 291ffc40 
  3e000024 613e1b8c 000009c6 28001b81 619e0024 418c41c1 426c984c b78e4191 
  39000024 32000024 3e100024 1ffffe80 30018024 af0e0024 b6500024 c4000024 
  291ffc40 3e000024 613e1b8c 000009c6 28002001 00000024 619e4046 f40041c1 
  426c984c f4004191 39000024 32000024 3e100024 30000024 b0500024 c4000024 
  291ffc40 3e000024 613e1b8c 000009c6 28000a41 00000024 619e4046 28000a40 
  f40041c1 6892184c 3e120024 3e05b814 36350024 3e00b843 00001fc3 3e013845 
  3e01b847 000001c6 3e03784e 000000cd 3e13d38c 2440290d be8a1082 291ffbc0 
  ae6a3802 b030104c 3cf1b007 fe100024 ceba0024 4e821bcc 36f3c024 36f3580e 
  36f19807 36f11805 36f09803 34059014 36f30024 36f20024 20000000 00000024 
  6892184c 3e120024 3e05b814 36150024 3e00b843 00000202 3e013845 3e01b847 
  3e03784e 000000cd 3e13d38c 2440304d be8a1083 291ffbc0 ae2a3803 fe100024 
  48be0024 cefa0024 4e821bcc 36f3c024 36f3580e 36f19807 36f11805 36f09803 
  34059014 36f30024 36f20024 20000000 00000024 36130024 3e120024 3e05b814 
  36150024 3e003841 f4004481 00000780 3e00b843 3e043811 f4004051 00000010 
  29000000 00000752 00000790 00000000 00000802 28003900 38000024 63160024 
  00000024 28003a49 00000024 3af00024 3200c024 63260024 f4004483 280037c5 
  00000024 00000000 b182184c c8903840 3e104024 3e110024 29000000 3e000024 
  36c30024 36f41811 36f09803 36f01801 34059014 36f30024 36f20024 20000000 
  00000024 00002397 36130024 3e120024 3e05b814 36850024 3e007842 3e00f844 
  3e017846 3e01f850 3e047852 3e04f84d 3e13b80f 34d30024 34614024 291ff900 
  3e014024 3c003341 00000000 bc823840 3e100024 3e104024 291ff880 3e014024 
  36d30024 291ffbc0 3e014024 00001241 60101bcc 00000024 28004855 00000024 
  36130024 291ffbc0 3e014024 00001101 60100024 00000024 28006045 00000024 
  36f30024 00000080 00000010 c892184c 3e100024 1fffe000 3e100024 3e104024 
  291ff880 3e014024 000019c0 36d30024 29000000 3e000024 00001fcd 3009138c 
  24404d0d 3424c024 291ffbc0 3e014024 38100024 00001d11 000000c0 36f30024 
  29000000 00000010 60800024 00000024 28005495 00000024 00001850 000140c4 
  29003340 000000d2 00014144 29003340 00000852 00014104 29003340 00000fd2 
  b880984c b1822000 00001740 3e100024 00014180 3e104024 c8903840 29000000 
  3e000024 36c30024 3433184c b8809001 3e100024 34d00024 3e100024 3e104024 
  291ff880 3e014024 0000204d 34731b0c 244057cd 34100024 3b100024 34100024 
  1fffdd95 3b90120c 3393180f 36f38e4c 3393180d 33930024 33930024 33930024 
  33930024 33930024 33930024 33930024 33930024 33930024 33930024 33930024 
  33930024 33930024 33930024 33c30024 f40044c0 36f4c024 36f45812 36f1d810 
  36f15806 36f0d804 36f05802 34059014 36f30024 36f20024 20000000 00000024 
  36130024 291ffbc0 3e014024 40821bcc 00000cc0 61000024 00000024 28004855 
  00000024 36130024 291ffbc0 3e014024 60901bcc f1020024 00000080 61000024 
  00000024 28004855 00000024 36130024 291ffbc0 3e014024 60801bcc 00000980 
  28004855 00000024 36130024 291ff580 3e000024 3e01504c 291ffbc0 300933c0 
  29002440 40883805 34531bcc 3c0033c1 00001000 b4000024 00000000 28006e05 
  00000024 34c3184c 29002c00 3e014024 4c860024 68900024 b3863840 3e108024 
  3e10c024 291ff880 3e014024 34531b0c 34001001 6cd20024 3c0033c1 00000000 
  b1823000 6890b381 3cc00024 280074c0 3424c024 6182108c 3009184c 28007245 
  00000180 b88210cc f4004041 34009343 f40040c3 6dc20024 00000024 280080d8 
  00000024 34300024 3e101001 34b00024 3e100024 3e104024 291ff880 3e014024 
  34531b0c bc820024 3c0032c1 34530024 34001301 f4004041 6c820024 30091000 
  28007e49 00000024 b88813cc 28007c80 b8820024 340092c3 f40040c3 6d860024 
  00000024 28006f49 00000024 36130024 291ffbc0 3e014024 00002295 34831bcc 
  f4004502 1fffded5 4244120c 64984090 38001003 c1021002 68900024 4d960024 
  3c00b343 3ce00024 00000100 6400114c 00000024 28007748 00000024 28006f40 
  34b30024 608013cc 00000024 28005485 00000024 3413184c 300913c0 291ff5c0 
  3e000024 28005480 36f30024 29002c00 3e01538c 291ffbc0 4c863805 291ffbc0 
  3e014024 00000180 b882114c 340192c7 6fc21bcc f4004041 6cde0024 00000010 
  280084d8 00000024 4c860024 6cd2114c 28008e00 3c003301 3443184c 34001341 
  3e100024 3e104024 34f40024 30000024 c8903840 29000000 3e000024 34731b4c 
  3c900024 000007c0 3e100024 00001700 29000000 3e000024 0000078d b8829bcc 
  24408ccd 34730024 f4004500 4010924c f4004010 30000024 3e100024 00001880 
  29000000 3e000024 61929bcc 34730024 34931bcc 34130024 34040024 30630024 
  3c14184c 30000024 60800024 00000100 2800ad45 00000024 00002255 34f31bcc 
  34848024 f4004511 1fffddd5 3213120c f4004490 32f30024 29000000 3cf48024 
  60800024 00000024 28008d55 00000024 00000011 36130024 291ffbc0 3e014024 
  f4004004 00003f81 4d961bcc 61224080 00000024 28009601 00000024 00003f80 
  40920024 68000024 00000006 28009941 68000024 36130024 291ffbc0 3e014024 
  3910108c 68909bcc 4d963380 28009600 41800024 3911904c 390193c0 60800024 
  00000024 28009d85 00000024 00000110 f4004401 00000012 34130024 300913c0 
  40100024 f4004010 30000024 f4004008 20000000 00009d88 00000bc0 36130024 
  29000000 3e000024 000140c0 34131bcc 34f40024 30004024 61000024 000000c1 
  61020024 00000024 28008d51 00000024 00001601 40100024 f4004010 30000024 
  f4004008 20000000 00000024 3443184c 34001341 3e100024 3e104024 34f40024 
  30000024 c8903840 29000000 3e000024 00001155 34831b0c 1fffeed5 28008d40 
  3c800024 3443184c 34001341 3e100024 3e104024 34f40024 30000024 c8903840 
  29000000 3e000024 00000995 34831b0c 1ffff695 28008d40 3c800024 3443184c 
  34001341 3e100024 3e104024 34f40024 30000024 c8903840 29000000 3e000024 
  00001915 34831b0c 1fffe715 28008d40 3c800024 34e00024 3e100024 3e108024 
  3e10c024 291ff880 3e014024 280074c0 36c30024 
<\ sizesize <- 0afa0000 > // 2810 bytes of payload.

//Section 1, 'voxdata_bss_2':
<0301:0002> (MEMORY; PAGE 1)
  0301 0002 sizesize 
  0000 0000 0100  //address, align, size
<\ sizesize <- 00060000 > // 6 bytes of payload.

//Section 2, 'voxdata_1':
<0301:0000> (MEMORY; PAGE 1)
  0301 0000 sizesize 
  0000 0000 0078  //address, align, size
  0503 0054 0049 0054 0032 0000 0504 0054 
  0041 004c 0042 0000 0505 0054 0050 0045 
  0031 0000 0506 0054 0059 0045 0052 0000 
  050d 0054 0052 0043 004b 0000 0000 0000 
  0000 0000 0000 0000 000a 0000 004d 004f 
  004a 0049 0042 0041 004b 0045 0000 0072 
  0069 0067 0068 0074 0020 0062 0065 0066 
  006f 0072 0065 0020 0074 0068 0065 0020 
  006d 0065 0073 0073 0061 0067 0065 0020 
  0064 0065 0074 0065 0072 006d 0069 006e 
  0061 0074 0069 006f 006e 0020 000a 0000 
  0216 028b 0299 02a7 0025 0069 0020 002d 
  0020 0000 0028 0025 0063 0029 0000 0049 
  0044 0033 0076 0031 0020 0074 0061 0067 
  0021 0020 000a 0000 0054 0041 0047 0000 
<\ sizesize <- 00f60000 > // 246 bytes of payload.

<0a01:8423> (CRCCHECK)
  0a01 8423 sizesize 
  
<\ sizesize <- 00000000 > // 0 bytes of payload.

<0401:0000> (RELOCATION : SECTION NUMBER TO POKE TO)
  0401 0000 sizesize 
  // Relocations for section 0 follow.
<\ sizesize <- 00000000 > // 0 bytes of payload.
  // Relocations whose target (_callback) section is 0 (votext):
<0403:0000> (RELOCATION : INTERNAL)
  0403 0000 sizesize 
  0012 0011 0017 001c 0025 002f 004b 005b 005e 006b 007c 008c 008f 00ee 014f 021d 0292 02a0 02ae //to 18 locations add base of section 0.
<\ sizesize <- 00260000 > // 38 bytes of payload.
  // Relocations whose target (String_1) section is 2 (voxdata_1):
<0403:0002> (RELOCATION : INTERNAL)
  0403 0002 sizesize 
  0001 002e //to 1 location add base of section 2.
<\ sizesize <- 00040000 > // 4 bytes of payload.
  // Relocations whose target (_vo_printf) section is 0 (_vo_printf):
<0402:0000> (RELOCATION : EXTERNAL NAME '_vo_printf' CRUNCHED '_vo_printf')
  0402 0000 00160000 
  005f 0076 006f 005f 0070 0072 0069 006e 0074 0066 0000 
<\string>

<0404:0000> (RELOCATION : EXTERNAL)
  0404 0000 sizesize 
  0005 0031 012c 0224 0230 0278 //to 5 locations add base of section 0.
<\ sizesize <- 000c0000 > // 12 bytes of payload.
  // Relocations whose target (_GetID3Size7) section is 0 (votext):
<0403:0000> (RELOCATION : INTERNAL)
  0403 0000 sizesize 
  0002 009d 01a0 //to 2 locations add base of section 0.
<\ sizesize <- 00060000 > // 6 bytes of payload.
  // Relocations whose target (_GetID3Size8) section is 0 (votext):
<0403:0000> (RELOCATION : INTERNAL)
  0403 0000 sizesize 
  0003 00bb 01aa 0203 //to 3 locations add base of section 0.
<\ sizesize <- 00080000 > // 8 bytes of payload.
  // Relocations whose target (_currTmpStr) section is 1 (voxdata_bss_2):
<0403:0001> (RELOCATION : INTERNAL)
  0403 0001 sizesize 
  000f 00d7 00d9 00da 00e9 0122 0139 013e 0141 0144 0147 014a 01a6 01b7 024c 026d //to 15 locations add base of section 1.
<\ sizesize <- 00200000 > // 32 bytes of payload.
  // Relocations whose target (_strncpy) section is 0 (_strncpy):
<0402:0000> (RELOCATION : EXTERNAL NAME '_strncpy' CRUNCHED '_strncpy')
  0402 0000 00120000 
  005f 0073 0074 0072 006e 0063 0070 0079 0000 
<\string>

<0404:0000> (RELOCATION : EXTERNAL)
  0404 0000 sizesize 
  0001 00d8 //to 1 location add base of section 0.
<\ sizesize <- 00040000 > // 4 bytes of payload.
  // Relocations whose target (_TrimAndSend) section is 0 (votext):
<0403:0000> (RELOCATION : INTERNAL)
  0403 0000 sizesize 
  0006 00dd 00e1 00e7 0140 0143 0146 //to 6 locations add base of section 0.
<\ sizesize <- 000e0000 > // 14 bytes of payload.
  // Relocations whose target (_ReturnID3) section is 0 (votext):
<0403:0000> (RELOCATION : INTERNAL)
  0403 0000 sizesize 
  0022 0116 011e 0130 013c 015c 0187 0191 0198 01a7 01bb 01bf 01c7 01d8 01db 01e1 01f5 01f7 01fb 0201 0210 0214 0228 023c 024a 0255 025b 0263 0269 0275 0282 0297 02a5 02b3 02bb //to 34 locations add base of section 0.
<\ sizesize <- 00460000 > // 70 bytes of payload.
  // Relocations whose target (id3v1tag_7) section is 2 (voxdata_1):
<0403:0002> (RELOCATION : INTERNAL)
  0403 0002 sizesize 
  0001 012a //to 1 location add base of section 2.
<\ sizesize <- 00040000 > // 4 bytes of payload.
  // Relocations whose target (tag_8) section is 2 (voxdata_1):
<0403:0002> (RELOCATION : INTERNAL)
  0403 0002 sizesize 
  0001 0135 //to 1 location add base of section 2.
<\ sizesize <- 00040000 > // 4 bytes of payload.
  // Relocations whose target (_strncmp) section is 0 (_strncmp):
<0402:0000> (RELOCATION : EXTERNAL NAME '_strncmp' CRUNCHED '_strncmp')
  0402 0000 00120000 
  005f 0073 0074 0072 006e 0063 006d 0070 0000 
<\string>

<0404:0000> (RELOCATION : EXTERNAL)
  0404 0000 sizesize 
  0001 0138 //to 1 location add base of section 0.
<\ sizesize <- 00040000 > // 4 bytes of payload.
  // Relocations whose target (mojibake_2) section is 2 (voxdata_1):
<0403:0002> (RELOCATION : INTERNAL)
  0403 0002 sizesize 
  0001 0197 //to 1 location add base of section 2.
<\ sizesize <- 00040000 > // 4 bytes of payload.
  // Relocations whose target (_id3Tags) section is 2 (voxdata_1):
<0403:0002> (RELOCATION : INTERNAL)
  0403 0002 sizesize 
  0001 020f //to 1 location add base of section 2.
<\ sizesize <- 00040000 > // 4 bytes of payload.
  // Relocations whose target (i_5) section is 2 (voxdata_1):
<0403:0002> (RELOCATION : INTERNAL)
  0403 0002 sizesize 
  0001 0223 //to 1 location add base of section 2.
<\ sizesize <- 00040000 > // 4 bytes of payload.
  // Relocations whose target (c_6) section is 2 (voxdata_1):
<0403:0002> (RELOCATION : INTERNAL)
  0403 0002 sizesize 
  0001 022f //to 1 location add base of section 2.
<\ sizesize <- 00040000 > // 4 bytes of payload.
  // Relocations whose target (_memcmp) section is 0 (_memcmp):
<0402:0000> (RELOCATION : EXTERNAL NAME '_memcmp' CRUNCHED '_memcmp')
  0402 0000 00100000 
  005f 006d 0065 006d 0063 006d 0070 0000 
<\string>

<0404:0000> (RELOCATION : EXTERNAL)
  0404 0000 sizesize 
  0001 0246 //to 1 location add base of section 0.
<\ sizesize <- 00040000 > // 4 bytes of payload.
  // Relocations whose target (rightbefo_3) section is 2 (voxdata_1):
<0403:0002> (RELOCATION : INTERNAL)
  0403 0002 sizesize 
  0001 0276 //to 1 location add base of section 2.
<\ sizesize <- 00040000 > // 4 bytes of payload.
  // Relocations whose target (JumpTable_4) section is 2 (voxdata_1):
<0403:0002> (RELOCATION : INTERNAL)
  0403 0002 sizesize 
  0001 0284 //to 1 location add base of section 2.
<\ sizesize <- 00040000 > // 4 bytes of payload.

<0401:0002> (RELOCATION : SECTION NUMBER TO POKE TO)
  0401 0002 sizesize 
  // Relocations for section 2 follow.
<\ sizesize <- 00000000 > // 0 bytes of payload.
  // Relocations whose target (_ReturnID3) section is 0 (votext):
<0403:0000> (RELOCATION : INTERNAL)
  0403 0000 sizesize 
  0004 0058 0059 005a 005b //to 4 locations add base of section 0.
<\ sizesize <- 000a0000 > // 10 bytes of payload.

<0a01:096c> (CRCCHECK)
  0a01 096c sizesize 
  
<\ sizesize <- 00000000 > // 0 bytes of payload.
//From Emulation-Debug\main.o: 
<0800:0000> (SYMBOL '_callback') (section=0, offset=0 (0x0000))
  0800 0000 00140000 
  005f 0063 0061 006c 006c 0062 0061 0063 006b 0000 
<\string>
//From Emulation-Debug\main.o: 
<0800:0091> (SYMBOL '_GetID3Size7') (section=0, offset=145 (0x0091))
  0800 0091 001a0000 
  005f 0047 0065 0074 0049 0044 0033 0053 0069 007a 0065 0037 0000 
<\string>
//From Emulation-Debug\main.o: 
<0800:00b0> (SYMBOL '_GetID3Size8') (section=0, offset=176 (0x00b0))
  0800 00b0 001a0000 
  005f 0047 0065 0074 0049 0044 0033 0053 0069 007a 0065 0038 0000 
<\string>
//From Emulation-Debug\main.o: 
<0800:00cd> (SYMBOL '_TrimAndSend') (section=0, offset=205 (0x00cd))
  0800 00cd 001a0000 
  005f 0054 0072 0069 006d 0041 006e 0064 0053 0065 006e 0064 0000 
<\string>
//From Emulation-Debug\main.o: 
<0800:00f9> (SYMBOL '_ReturnID3') (section=0, offset=249 (0x00f9))
  0800 00f9 00160000 
  005f 0052 0065 0074 0075 0072 006e 0049 0044 0033 0000 
<\string>
//From Emulation-Debug\main.o: 
<0801:0000> (SYMBOL '_currTmpStr') (section=1, offset=0 (0x0000))
  0801 0000 00180000 
  005f 0063 0075 0072 0072 0054 006d 0070 0053 0074 0072 0000 
<\string>
//From Emulation-Debug\main.o: 
<0802:0000> (SYMBOL '_id3Tags') (section=2, offset=0 (0x0000))
  0802 0000 00120000 
  005f 0069 0064 0033 0054 0061 0067 0073 0000 
<\string>
//From Emulation-Debug\main.o: 
<0802:0024> (SYMBOL 'String_1') (section=2, offset=36 (0x0024))
  0802 0024 00120000 
  0053 0074 0072 0069 006e 0067 005f 0031 0000 
<\string>
//From Emulation-Debug\main.o: 
<0802:0026> (SYMBOL 'mojibake_2') (section=2, offset=38 (0x0026))
  0802 0026 00160000 
  006d 006f 006a 0069 0062 0061 006b 0065 005f 0032 0000 
<\string>
//From Emulation-Debug\main.o: 
<0802:002f> (SYMBOL 'rightbefo_3') (section=2, offset=47 (0x002f))
  0802 002f 00180000 
  0072 0069 0067 0068 0074 0062 0065 0066 006f 005f 0033 0000 
<\string>
//From Emulation-Debug\main.o: 
<0802:0058> (SYMBOL 'JumpTable_4') (section=2, offset=88 (0x0058))
  0802 0058 00180000 
  004a 0075 006d 0070 0054 0061 0062 006c 0065 005f 0034 0000 
<\string>
//From Emulation-Debug\main.o: 
<0802:005c> (SYMBOL 'i_5') (section=2, offset=92 (0x005c))
  0802 005c 00080000 
  0069 005f 0035 0000 
<\string>
//From Emulation-Debug\main.o: 
<0802:0062> (SYMBOL 'c_6') (section=2, offset=98 (0x0062))
  0802 0062 00080000 
  0063 005f 0036 0000 
<\string>
//From Emulation-Debug\main.o: 
<0802:0067> (SYMBOL 'id3v1tag_7') (section=2, offset=103 (0x0067))
  0802 0067 00160000 
  0069 0064 0033 0076 0031 0074 0061 0067 005f 0037 0000 
<\string>
//From Emulation-Debug\main.o: 
<0802:0074> (SYMBOL 'tag_8') (section=2, offset=116 (0x0074))
  0802 0074 000c0000 
  0074 0061 0067 005f 0038 0000 
<\string>

<0a00:b087> (CRCCHECK)
  0a00 b087 sizesize 
  
<\ sizesize <- 00000000 > // 0 bytes of payload.

<0900:0000> (ENTRYLIST)
  0900 0000 sizesize 
  5265 0000 00f9  // _ReturnID3
  
<\ sizesize <- 00060000 > // 6 bytes of payload.

<0a01:5c64> (CRCCHECK)
  0a01 5c64 sizesize 
  
<\ sizesize <- 00000000 > // 0 bytes of payload.
00000000 ffffffff 
<0a00:fffe> (CRCCHECK)
  0a00 fffe sizesize 
  
<\ sizesize <- 00000000 > // 0 bytes of payload.
