56444532
<0100:0001> (STRING 'Dynamic App')
  0100 0001 00180000 
  0044 0079 006e 0061 006d 0069 0063 0020 0041 0070 0070 0000 
<\string>

<0100:0005> (STRING '7/23/2018 5:18:25 PM')
  0100 0005 002a0000 
  0037 002f 0032 0033 002f 0032 0030 0031 0038 0020 0035 003a 0031 0038 003a 0032 0035 0020 0050 004d 0000 
<\string>

<0a00:a5df> (CRCCHECK)
  0a00 a5df sizesize 
  
<\ sizesize <- 00000000 > // 0 bytes of payload.

//Section 0, 'votext':
<0300:0000> (MEMORY; PAGE 0)
  0300 0000 sizesize 
  0000 0000 07fc  //address, align, size
  00004000 36130024 3e120024 3e05b814 36250024 3e007842 3e00f844 3e017846 
  3e01f850 003fb2d0 3e047852 3e14c001 c1000024 30092000 00004000 00002210 
  30004024 00023690 41000012 b8824010 f4004411 291ff280 00003904 b880184c 
  290149c0 3e000024 00022450 30019bcc 668c0024 00000024 2900f145 00000b08 
  00000240 46000024 f4004010 30008024 00023410 30000024 620c0024 00000024 
  2901f5c5 00000e88 2900f140 00000024 c8900024 36f4c024 36f45812 36f1d810 
  36f15806 36f0d804 36f05802 34059014 36f30024 36f20024 20000000 00000024 
  2901f5c0 00000024 00002880 36130024 29000000 3e000024 00002180 29001580 
  3e000024 00000091 39000024 00002c00 29000000 3e000024 31000024 60800024 
  00003600 28001495 00000024 00002e00 29000000 3e000024 29009580 36f30024 
  28000b40 c8900024 29000000 3e000024 00003980 3e100024 00003a00 291ff800 
  3e000024 00002050 38001bcc 60800024 000046c0 28001995 00000024 00003ec0 
  29000000 3e000024 29009580 36f30024 28000b40 c8900024 29000000 3e000024 
  00004880 3e100024 00000180 29000000 3e000024 00004880 00023390 36f30024 
  3e100024 30000024 29000000 3e000024 00004940 36f30024 29000000 3e000024 
  68900024 3e000024 2900aa00 00002388 00004d80 36130024 3e14c024 3e100024 
  00000180 29000000 3e000024 b8801b8c 2900aa00 3e000024 61921bcc f40044d0 
  2901e400 00004cd1 6080184c 00004ec0 28002745 00000024 00004880 3e104024 
  2900d780 3e000024 f4004013 f40044d0 00004cd1 2901e400 36e30024 60800024 
  00000024 28001f15 00000024 280021c0 00000024 29000000 3e000024 00002050 
  291ff980 30041bcc 00000145 00002004 00005251 29015f80 0001bb12 00000145 
  00002004 000055d1 0001b692 00002390 29015f80 38000024 00002410 3800184c 
  00005840 291ff580 3e000024 00002090 38001bcc 60800024 00000024 28002f55 
  00000024 29009580 00000024 28000b40 c8900024 00002850 b8800024 29002480 
  38000024 29017b80 00000024 00003246 00002711 000020d2 00000090 00002853 
  689a104c b88e33d0 29016e80 00000024 29010000 00000024 29004700 00000024 
  00002190 30000024 60800024 00000024 28003285 00000024 00000150 3000184c 
  00000110 3b000024 30000024 00002810 3e100024 00005a80 3e100024 30000024 
  29000000 3e000024 33001b8c 3e100024 00005c80 3e100024 29000000 3e018024 
  000233d0 30001b4c b0500024 00000024 28004905 00000024 29009580 00000024 
  00002090 3000184c 291ff5c0 3e000024 00000090 30000024 29001700 3e000024 
  00002090 30000024 291ff5c0 3e000024 00000090 30000024 29001700 3e000024 
  28000b40 c8901bcc 34130024 300913d0 30048024 00002090 30040024 30530024 
  30000024 f4004008 20000000 00004308 00002010 291ff980 30040024 3100184c 
  60800024 000031d0 28007d55 b8800024 000022d0 30001bcc 60800024 00002310 
  28007815 00000024 30000024 60800024 00000024 28004895 00000024 33000024 
  60900024 3b000024 34130024 300913d2 00002190 30000024 60800024 00000024 
  28003285 00000024 3300184c 3e100024 00005c80 3e100024 29000000 3e018024 
  00002810 36e30024 3e118024 30000024 291ff800 3e000024 00002010 38001b8c 
  60800024 00000024 28007605 00000024 00000090 3004104c 3800184c 34f00024 
  3e100024 00000080 3e100024 00005e00 291fff80 3e000024 00002010 30001b8c 
  29008c00 3e000024 36f3104c 28005840 300933d2 2900a040 00000024 6080104c 
  f4004452 28007595 00000024 00002712 320013cc 60800024 00000024 29004705 
  00005a48 000020d0 68900011 31730024 31630024 39000024 f4004491 34130024 
  300933d0 29009880 00000024 60800024 00000024 29016e95 00005348 28004080 
  00000024 60800024 00000024 28007315 00000024 29010000 00000024 60800024 
  00000024 28007315 00000024 00000784 689a184c 2901a440 3e014024 60801bcc 
  00000024 28007315 00000024 00000944 689a184c 29016fc0 3e014024 60801bcc 
  00000024 28007315 00000024 000009c4 689a184c 29000dc0 3e014024 60801bcc 
  00000024 28007315 00000024 00000344 689a184c 2901b980 3e014024 60801bcc 
  00000024 28007315 00000024 00000804 689a184c 2901ccc0 3e014024 60801bcc 
  00000024 28007315 00000024 00000844 689a184c 2901e040 3e014024 60801bcc 
  00000024 28007315 00000024 00000884 689a184c 29017fc0 3e014024 60801bcc 
  00000024 28007315 00000024 000008c4 689a184c 29000000 3e014024 60801bcc 
  00000024 280072d5 00000024 00000904 6892184c 29019000 3e004024 60801bcc 
  00000024 280072d5 00000024 000003c2 00000504 00000003 b88a184c 291ff380 
  b88e0024 60800024 00002790 280072d5 00000024 3000184c 60800024 00005fc0 
  280073d5 00000024 36f30024 689a0024 34130024 28005780 300913d0 29000000 
  3e000024 0000fa00 291ff500 3e000024 280072c0 36f30024 28005780 300913d0 
  3300184c 60900024 3e100024 00006580 29000000 3e000024 28004900 3b01db8c 
  000000d0 3000184c 29008280 3e000024 38001bcc 000026d0 40840003 29000000 
  43800024 33000024 60100024 000000d0 28007805 00000024 30008024 000026d0 
  3000c024 29000000 43800024 28004880 3b004024 38000024 00000150 30000024 
  00000110 3b000024 30000024 00002810 3e100024 00005a80 3e100024 30000024 
  29000000 3e000024 33001b8c 3e100024 00005c80 3e100024 29000000 3e018024 
  28004880 3901db4c 36230024 3e05b814 36150024 6893e1e2 34e30024 34200024 
  b0140024 f2000024 62120024 002d0001 280085d5 00000024 d0100024 36f05802 
  34059014 20000000 36e30024 36130024 3e120024 3e003850 000020d0 3e047812 
  00002111 30048024 00002090 30040024 30630024 30000024 f4004008 20000000 
  00008a48 00002150 38001812 36f44024 36f01810 36f20024 20000000 00000024 
  36130024 3e120024 3e05b814 36150024 3e013850 00023690 3e047852 3e04d38c 
  00002093 b8881092 30044024 00000010 3304c024 33430024 33000024 f4004008 
  20000000 00009088 000020d0 60802000 00000024 28009595 00000024 29009580 
  00000024 00006f00 36130024 29000000 3e000024 c8901bcc 36f4c024 36f45812 
  36f11810 34059014 36f30024 36f20024 20000000 00000024 000086c0 36130024 
  3e100024 00000100 291ff4c0 3e000024 00001900 36f30024 291ff500 3e000024 
  28009380 b8801bcc 36130024 3e120024 3e05b814 36150024 3e007810 00023590 
  30004024 00001010 f4004400 41000024 f4004010 30000024 60800024 00000181 
  28009fc5 60100024 00001900 28009fc5 00000024 36130024 291ff500 3e000024 
  68901bcc 36f05810 34059014 36f30024 36f20024 20000000 00000024 28009e40 
  b8800024 36130024 3e120024 3e05b814 36150024 3e007850 000233d0 68923812 
  30000024 b0100024 000020d0 2800a985 00000024 3004984c 689009cc 32630024 
  b8802800 00002192 3a000024 00001900 291ff500 3e000024 30049bcc 00002090 
  30040024 30530024 30000024 f4004008 20000000 0000a788 41800024 36f48024 
  36f05810 34059014 36f30024 36f20024 20000000 00000024 2800a7c0 b8800024 
  00000897 000076c0 36130024 3e120024 3e05b814 36850024 3e007842 3e00f844 
  3e017846 3e01f850 3e047852 b8823853 3e100024 00000180 291ff800 3e000024 
  60881b8c f4004110 2800b215 00000024 36f4c024 36f45812 36f1d810 36f15806 
  36f0d804 36f05802 34059014 36f30024 36f20024 20000000 00000024 f4004110 
  00002000 36130024 3e100024 00000000 3e100024 00000180 291ffd40 3e000024 
  60801b8c 00008f00 2800b6c5 00000024 29000000 3e000024 36f30024 291ff980 
  f4004110 2800af00 41800024 00000187 00000092 00002053 36f3104c 3c148024 
  f4004505 34c30024 2800c480 34208024 00005c80 36130024 3e104024 3e100024 
  000034c0 29000000 3e000024 62841b8c 00005a80 2800d505 00000024 3e11c024 
  3e100024 29000000 3e014024 36d30024 000034c0 36130024 3e100024 000079c0 
  3e114024 29000000 3e000024 000034c0 36e30024 3e100024 291ff800 3e014024 
  60869bcc 34130024 2800c815 00008680 29000000 3e0013cc 36f30024 f4004110 
  00002000 36130024 3e100024 00000000 291ffd80 3e000024 68001b8c 00000024 
  2800b5d5 00000024 00007751 00000240 44000024 f4004010 30040024 30730024 
  2901e400 30630024 60800024 00000024 2800c1d5 00000024 2800b900 00000024 
  32040024 3800c024 34f00024 3e100024 00000080 3e100024 00005e00 291fff80 
  3e000024 00007dd1 32041b4c 2901e400 30130024 60800024 00000780 2800ce95 
  00000024 00000011 32040024 29000000 30130024 000007c0 32018024 46000024 
  b8804010 38000024 6284184c 00007fc0 2800d2d5 619c3847 00008300 3e104024 
  32040024 30130024 3e140024 3e100024 33000024 29000000 3e000024 468240d0 
  36b30024 291ff980 0000c1c8 3e104024 32040024 30130024 3e140024 3e100024 
  33000024 3e000024 29000000 0000d1c8 00002750 30000024 3e100024 00007840 
  3e11c024 3e100024 29000000 3e014024 2800bd00 36c30024 000076c0 36130024 
  3e120024 3e05b814 36150024 3e007842 3e00f844 3e017846 3e01f850 3e147812 
  3e10138c b8861081 291ff800 3e004024 60841bcc 00009540 2800df95 00000024 
  29000000 3e000024 36f30024 36f45812 36f1d810 36f15806 36f0d804 36f05802 
  34059014 36f30024 36f20024 20000000 00000024 36130024 f4004090 00002000 
  3e100024 00000000 3e100024 291ffd40 3e004024 60801b8c 00008f00 2800ec55 
  00000024 00002004 00000005 00000407 00000246 36f3134c 2800e9c0 34304024 
  00009311 42600024 f4004012 2901e400 32040024 60800024 00000024 2800e785 
  00000024 63100024 00000024 2800ee05 00000024 63960024 f4004090 36130024 
  3e110024 291ffd80 3e014024 68001b8c 00000024 2800ed15 00000024 00000140 
  42000024 f4004010 30000024 b0700024 00000024 2800e415 00000024 2800e780 
  00000024 29000000 3e000024 36f30024 291ff980 f4004090 2800dcc0 00004cc0 
  291ff980 f4004090 2800dcc0 32000024 36230024 3e05b814 36150024 3e003841 
  003e0001 3e00b843 00003fc2 42863804 34e33845 3e01b847 00200007 00018006 
  3e043851 003f2991 003f0c10 3e04b813 003f31d3 34248000 b0100024 30092000 
  003f2810 0001bfc0 30090001 c1000024 f272a180 00010000 f200a000 30092000 
  00010000 003f29d0 32010024 64980024 00000024 2800fb85 00000024 32112c07 
  32116001 b53aa002 2800f9c0 30092405 32112401 b438a002 4588a404 449aa000 
  6488a000 30092000 2800f915 30092406 2800f680 00000024 003f3190 00200000 
  0001ffc1 30092000 003f0c10 30090000 c0100024 30092000 36f49813 36f41811 
  36f19807 36f11805 36f09803 36f01801 34059014 20000000 36e30024 00000417 
  36130024 3e120024 3e05b814 36850024 3e007842 3e00f844 3e017846 3e01f850 
  00000010 3e04b84d 000002cd 3e03b80f 2441038d 34330040 3c100040 1ffffb15 
  3c10184c b78e120c b58a1082 428c10c0 40884017 6fea0024 6e9a0024 3c013285 
  b58a1083 43881101 f4004046 6eff4445 6f9e4100 ffea0024 48ba0024 ff8e0024 
  00000007 51ea45c0 44ba4006 4eea0024 3c013105 00003fc4 1ffffe05 af5e0024 
  00000007 b0403046 428c3040 af5e0024 00000007 b2403046 418c30c0 af5e0024 
  b1403046 b1823040 f40040c0 ac520024 b3403040 00300004 bd863240 b88a124c 
  291ff1c0 bf8e0024 00000384 3433184c 2900ef00 3e05134c 291ff3c0 b88a0024 
  000039d0 00003ad2 b88a184c 68903845 3e000024 32000024 f4004008 20000000 
  00011248 000039d0 00003b52 68901bcc 3e100024 00000b00 3e100024 3e014024 
  32000024 f4004008 20000000 00011508 00000384 689a1b8c 291ff3c0 3009128c 
  34600024 60800024 00100001 28012085 000039d0 3413184c 340093c3 b8823842 
  3e104024 3e000024 32000024 f4004008 20000000 00011988 36d30024 000039d0 
  00003ad2 b880184c 3e100024 00000080 3e000024 32000024 f4004008 20000000 
  00011c48 b88a1bcc bd860024 bf8e0024 291ff240 00300004 36f3980f 36f4980d 
  36f1d810 36f15806 36f0d804 36f05802 34059014 36f30024 36f20024 20000000 
  00000024 00100001 00003b52 418c124c b88e11c4 28012680 b88a0024 00000023 
  3413184c 34009003 00000021 6fd60024 000039d0 280128d1 00000024 340093c3 
  3e108024 3e110024 3e014024 32000024 f4004008 20000000 000125c8 34131b4c 
  bd860024 3c00b3c3 34130024 340093c3 00000021 6d860024 00000024 280121d5 
  00000024 280119c0 00000024 34009003 6df60024 3c00b3c3 3e104024 3e110024 
  3e014024 32000024 f4004008 20000000 00012b48 28012680 36d30024 000001c0 
  36130024 3e120024 3e05b814 36650024 3e007842 3e00f844 3e017846 00004206 
  408a3807 34d33850 3e047852 00021d11 3e04f84d 00021d53 3e03b80f 3410c024 
  43001142 3c900024 28013400 34448024 3e100024 3e118024 34d00024 3e100024 
  00000180 42000024 3e100024 3e10c024 29001f40 3e008024 36a3084c 42540024 
  32000024 60800024 00004210 280146c5 00000024 32000024 40020024 40120024 
  00000000 401e0c01 29000000 00000e00 00000001 000000c0 610010cc 3009184c 
  28013101 b8800024 000001cd 4718134c 30091bcc 24413fcd 41184110 34230024 
  3c0133c3 3c007002 00000201 40188002 68920024 a1460024 b2329042 34f11003 
  61820024 00000024 280143d5 00000024 34f04024 34230024 3cf0c024 6893c1c2 
  a1068002 b2329042 618213c3 00000024 28014095 00000024 34f04024 60900024 
  28013740 61920024 ffd010c1 3c01b387 3c00f3c2 3c0430c1 48be0401 46441006 
  62969347 46340024 f4004090 38005001 34140024 28013fc0 34e0d002 ffd010c1 
  3c01b347 48be3043 3c00b3d0 310070c1 46461006 46349347 f4004090 38005041 
  34f09010 28013d40 34f0c024 36f3980f 36f4d80d 36f45812 36f1d810 36f15806 
  36f0d804 36f05802 34059014 36f30024 36f20024 20000000 00000024 36130024 
  3e120024 3e05b814 36150024 3e007842 3e043851 3e04b813 34e30024 34208024 
  62840024 00000040 28015095 000039d0 b880184c 3e100024 00010000 2901bfc0 
  3e000024 0000e5c0 00021c10 36f30024 2900ef00 3e000024 00000400 29000000 
  b8821bcc 68900024 62020024 00000400 28015215 b8820024 29000000 00021c10 
  00021d53 00001f50 00000402 00021c12 00003c00 00021c51 b8822840 00005000 
  3a700024 00003bc0 3a204024 3af00024 00004fc0 3a204024 3a900024 002d6d80 
  3a200024 3af00024 3a208024 3a608024 003fffc2 3af08024 0014a282 3a308024 
  3af04024 3a000024 291ff2c0 0000ffc0 00001f90 00012bc0 32930024 291ff2c0 
  32930024 3300184c b8803840 3e100024 31000024 40900024 3e100024 32000024 
  40900024 3e100024 3e104024 29001f40 3e004024 36a30024 36f49813 36f41811 
  36f05802 34059014 36f30024 36f20024 20000000 00000024 00000380 36130024 
  3e120024 3e05b814 36250024 3e007842 3e00f850 44823853 68944490 3e100024 
  29001600 3e008024 60881b8c 00000024 28016805 00000024 36130024 41843842 
  29001800 3e004024 40869b8c 00000300 4400904c f4004012 3a00c024 32000024 
  60800024 00000024 28016a55 00000024 34f3184c 29001700 3e010024 b8881bcc 
  44801bd3 36f0d810 36f05802 34059014 36f30024 36f20024 20000000 00000024 
  34130024 3c040024 f4004110 f4004413 33330024 3bf14024 3b644024 32000024 
  f4004412 b8802c40 3bd04024 3b100024 3b000024 34f40024 29000000 f4004400 
  291ff480 00000024 00000340 44000024 f4004010 28016800 38008024 36130024 
  3e120024 3e05b814 36150024 3e007842 3e00f845 b886b810 448c3846 b88a138c 
  291ff380 000003c2 34204024 b0100024 00000024 28017bc5 00000024 00010100 
  36130024 29000000 3e000024 000003c2 000020d0 30041bcc 689001cc 6892018c 
  b8802000 00002310 b8862000 00000010 38004024 00000050 38000024 4688184c 
  291ff380 b88a0024 60800024 000003c2 280177d5 b8860024 68900024 36f19810 
  36f0d805 36f05802 34059014 36f30024 36f20024 20000000 00000024 000003c2 
  00000003 4688184c 291ff380 b88a0024 61824002 00000000 28017e55 00000024 
  68900024 b200184c 00010100 28017455 00000024 280179c0 b8801bcc 36130024 
  3e120024 3e05b814 36150024 3e007842 3e00f845 b886b810 448c3846 b88a138c 
  291ff380 000003c2 34204024 b0100024 00000024 28018c05 00000024 00002310 
  b8820000 60800024 00010800 28018595 00002310 68920024 3800584c 3e104024 
  29000000 3e000024 000003c2 00000010 68901b8c b8802000 00000050 b8862000 
  4688184c 291ff380 b88a0024 60800024 000003c2 28018815 b8860024 68900024 
  36f19810 36f0d805 36f05802 34059014 36f30024 36f20024 20000000 00000024 
  000003c2 00000003 4688184c 291ff380 b88a0024 61824002 00000000 28018e95 
  00000024 68900024 b2000024 00002310 28018415 00000024 28018a00 b8800024 
  36130024 3e120024 3e05b814 36150024 3e007842 3e00f845 b886b810 448c3846 
  b88a138c 291ff380 000003c2 34204024 b0100024 00000024 2801a045 00000024 
  000000d0 00000000 b8822000 000022d0 30000024 60800024 00010b80 28019695 
  00000024 68920024 3800584c 3e104024 29000000 3e000024 000000d0 28019900 
  36e30024 30000024 60900024 38000024 000003c2 00000003 4688184c 291ff380 
  b88a0024 60800024 00000024 28019855 00000024 000000d0 30000024 60800024 
  00132080 28019d15 00000024 38000024 00000010 68900024 b8822000 00000050 
  38004024 36f19810 36f0d805 36f05802 34059014 36f30024 36f20024 20000000 
  00000024 000003c2 00000003 4688184c 291ff380 b88a0024 61824002 00000000 
  2801a2d5 00000024 68900024 b2000024 000000d0 28019495 b8800024 28019e40 
  b8800024 36130024 3e120024 3e05b814 36150024 3e007842 3e00f845 b8863806 
  448cb850 b88a3852 34e30024 291ff380 000003c2 34204024 b0100024 000003c2 
  2801b605 00000024 000020d0 00000a00 30004024 41000024 b8824010 30000024 
  60800024 00000a00 2801ab55 000020d0 68920024 3000984c 42040024 f4004092 
  3a004024 30004024 41000024 f4004010 30000024 60800024 000111c0 2801b545 
  00000024 00010f40 29000000 3e000024 000003c2 00000010 68901bcc b8802000 
  00000050 b8862000 4688184c 291ff380 b88a0024 60800024 000003c2 2801b095 
  b8860024 68900024 36f48024 36f19810 36f0d805 36f05802 34059014 36f30024 
  36f20024 20000000 00000024 000111c0 36130024 3e000024 29000000 0001af08 
  b886184c 291ff380 b88a4184 61824002 00000000 2801b815 00000024 68900024 
  b2000024 00000a00 2801a915 000020d0 2801b280 b8800024 36130024 3e120024 
  3e05b814 36150024 3e007842 44823803 b886b845 b88a3806 34e33850 3e147812 
  291ff380 000003c2 34218024 b0600024 00000024 2801c8c5 00000024 00002210 
  30004024 61820024 00003904 2801c009 00023692 00000180 61000024 38000024 
  00002210 00004001 3000184c 40100812 291ff280 f4004011 00000183 29000000 
  43800002 00000786 6600184c 3e100024 00008180 3e100024 00011440 29000000 
  3e000024 00004b00 36e30024 291ff500 3e000024 00000010 68909bcc b8822000 
  00000050 38004024 36f45812 36f19810 36f0d805 36f05802 34059014 36f30024 
  36f20024 20000000 00000024 000003c2 00000003 4188184c 291ff380 b88a0024 
  668c0024 00000001 2801cb55 00000024 68920024 b0100024 00002210 2801be15 
  00000024 2801c680 b8800024 36130024 3e120024 3e05b814 36150024 3e007842 
  44823803 b886b845 b88a3806 34e33850 3e147812 291ff380 000003c2 34218024 
  b0600024 00000024 2801dc45 00000024 00002210 00002d00 30004024 610c0024 
  00003904 2801d398 00023692 00000180 41000024 38000024 00002210 00004000 
  3000584c 41000812 291ff280 f4004011 00000183 29000000 43800002 00000786 
  6600184c 3e100024 00008180 3e100024 00011440 29000000 3e000024 00004b00 
  36e30024 291ff500 3e000024 00000010 68909bcc b8822000 00000050 38004024 
  36f45812 36f19810 36f0d805 36f05802 34059014 36f30024 36f20024 20000000 
  00000024 000003c2 00000003 4188184c 291ff380 b88a0024 668c0024 00000001 
  2801ded5 00000024 68920024 b0100024 00002d00 2801d195 00002210 2801da00 
  b8800024 36130024 3e120024 3e05b814 36150024 3e007842 3e00f845 b8863806 
  448cb850 b88ab812 3e14538c 291ff380 000003c2 34204024 b0100024 00000024 
  2801f1c5 00000024 000021d0 b8820000 60800024 000116c0 2801e655 000021d0 
  68920024 3800584c 3e104024 29000000 3e000024 30001b8c 60800024 00007211 
  2801f0d5 00003904 00002210 00004000 3000584c 00023690 41000012 f4004010 
  291ff280 f4004411 000003c2 68900024 00000010 b8802000 00000050 b8862000 
  4688184c 291ff380 b88a0024 60800024 000003c2 2801ec15 b8860024 68900024 
  36f45812 36f19810 36f0d805 36f05802 34059014 36f30024 36f20024 20000000 
  00000024 00003904 00007211 00023690 3004984c 291ff280 0001ea88 000003c2 
  00000003 4688184c 291ff380 b88a0024 61824002 00000000 2801f455 00000024 
  68900024 b2000024 000021d0 2801e4d5 00000024 2801ee00 b8800024 36130024 
  3e120024 3e05b814 36150024 3e003850 68903852 290149c0 3e000024 003e0000 
  00021d10 38000024 00015e40 3e100024 00001900 3e100024 00000280 29001f80 
  3e000024 00021d92 32001b4c 38000024 00000180 00002290 38000024 36f48024 
  36f01810 34059014 36f30024 36f20024 20000000 00000024 20000000 0001c940 
  b8800024 38000024 20000000 00000024 
<\ sizesize <- 1ff60000 > // 8182 bytes of payload.

//Section 1, 'votext_1':
<0300:0000> (MEMORY; PAGE 0)
  0300 0000 sizesize 
  0000 0000 07ea  //address, align, size
  36130024 3e120024 3e05b814 36150024 3e007842 44823803 b886b845 b88ab810 
  3e11938c 291ff380 000003c2 34218024 b0600024 00000024 280009c5 00000024 
  000119c0 36130024 29000000 3e000024 000020d0 30041bcc 689001cc 6892018c 
  b8802000 00002190 38000024 00000010 38004024 00000050 41802000 36f19810 
  36f0d805 36f05802 34059014 36f30024 36f20024 20000000 00000024 000003c2 
  00000003 4188184c 291ff380 b88a0024 668c0024 00000001 28000c55 00000024 
  68920024 b010184c 000119c0 28000495 00000024 280007c0 b8801bcc 36130024 
  3e120024 3e05b814 36150024 3e007842 3e00f845 b8863806 448cb850 b88a3852 
  34e30024 291ff380 000003c2 34204024 b0100024 00000024 28002085 00000024 
  00011dc0 36130024 29000000 3e000024 000020d0 00002312 000000c2 30041bcc 
  689001cc b886018c f40040c3 b8802040 3a000024 000022d2 3a000024 30100024 
  30f04024 f4004041 6cd20024 00002850 28001fd8 00000024 42920000 60100024 
  38000024 00002850 30000024 60920024 1fffffc0 28001a18 000003c2 38000024 
  00000010 68900024 b8802000 00000050 b8862000 4688184c 291ff380 b88a0024 
  60800024 000003c2 28001b55 b8860024 68900024 36f48024 36f19810 36f0d805 
  36f05802 34059014 36f30024 36f20024 20000000 00000024 00002850 30000024 
  28001800 40900024 000003c2 00000003 4688184c 291ff380 b88a0024 61824002 
  00000000 28002315 00000024 68900024 b200184c 00011dc0 28001295 00000024 
  28001d40 b8801bcc 36130024 3e120024 3e05b814 36150024 3e003841 68923802 
  30093843 3e143812 290149c0 3e004024 29017b80 36f30024 00012480 36130024 
  3e100024 3e104024 29001f80 3e004024 003e0000 00021d10 00000c83 38001b8c 
  00012700 3e100024 3e10c024 29001f80 3e004024 00012900 00004b02 36e30024 
  3e100024 3e108024 29001f80 3e004024 00012b80 36e30024 3e100024 3e10c024 
  00003203 29001f80 3e00c024 00012d00 36e30024 3e100024 3e108024 29001f80 
  3e00c024 00021d92 32001b4c 38001812 00002290 38004024 36f40024 36f09803 
  36f01801 34059014 36f30024 36f20024 20000000 00000024 36130024 3e120024 
  3e05b814 36150024 3e003841 68923802 30093843 3e143812 290149c0 3e004024 
  29017b80 36f30024 34e3184c 34200024 3e100024 3e104024 29001f80 3e004024 
  003e0000 00021d10 00000502 38001b8c 00012e40 3e100024 00003200 3e108024 
  29001f80 3e000024 00000140 34d31b4c 34304024 61060024 00012f80 28003f15 
  00000024 00002290 38005812 36f40024 36f09803 36f01801 34059014 36f30024 
  36f20024 20000000 00000024 00012f80 36130024 3e100024 3e108024 00000282 
  29001f80 3e008024 00013040 00004d83 36e30024 3e100024 3e10c024 29001f80 
  3e008024 00013180 36e30024 3e100024 00002f80 3e10c024 29001f80 3e000024 
  003ff800 38001b8c 00013340 3e100024 00000780 3e100024 29001f80 3e008024 
  00013b80 00000a03 36e30024 3e100024 000001c0 3e10c024 29001f80 3e000024 
  00013b80 36e30024 3e100024 00003980 3e10c024 29001f80 3e000024 00013340 
  36e30024 3e100024 00000c80 3e100024 29001f80 3e008024 00021d92 32001b4c 
  b8802000 00012390 38000024 00002250 28003c40 38000024 36130024 3e120024 
  3e05b814 36350024 3e003841 3e00b843 3e013845 3e01b847 3e043851 3e04b853 
  3e03784e 0000020d b882380f 2440544d 00000024 00013c00 36130024 3e100024 
  00000780 ff820024 00000a00 48b60024 40200024 3e100024 00000500 29001f80 
  3e000024 61921b4c 00012310 b880184c bc823840 3e100024 3e104024 30000024 
  291ff880 3e000024 280058c0 b8821b0c 3e100024 00002000 3e100024 00005000 
  291ffc00 3e000024 61921b4c 00000240 00012390 3000984c ff840024 48b60024 
  61240024 00012310 28005711 30000024 291ff900 3e000024 00012352 00000a06 
  00000787 00012313 00002003 00005002 00000244 00012410 f26a9bcc 38100024 
  280060c0 b88223c1 291ffc00 3e008024 60801b4c 00000024 28007405 41900024 
  1fffffc0 3a000024 61920024 64100024 00000024 28006811 61400024 3300184c 
  3e100024 28005e81 3e10c024 291ffc00 3e008024 60801b4c 00012350 28006785 
  00000024 00013b91 2901e6c0 00005010 3413184c fff3c2c3 48b63850 46209003 
  3e100024 3e014024 29001f80 34f08024 28006080 36d30024 41900024 38000024 
  00012312 00012413 b882184c 3e104024 33108024 33f0c024 3e108024 3e10c024 
  32000024 291ff880 3e000024 32001b4c 3e100024 00002000 3e100024 00005000 
  291ffc00 3e000024 00005000 36e30024 3e100024 000143c0 29000000 3e000024 
  36f30024 3e104024 33100024 33f04024 3e100024 3e104024 32000024 291ff880 
  3e000024 36c30024 36f3c024 36f3580e 36f49813 36f41811 36f19807 36f11805 
  36f09803 36f01801 34059014 36f30024 36f20024 20000000 00000024 41900024 
  28006080 3a000024 36130024 3e120024 3e05b814 36150024 3e103810 00000080 
  00012310 3e100024 000149c0 29003380 3e000024 30001b8c 60800024 00000024 
  28007905 00000024 291ff980 f4004010 00014d00 36130024 3e100024 00014dc0 
  291ff800 3e000024 00012310 38001bcc 60800024 00015280 28007e85 00000024 
  29004d80 36f30024 36f01810 34059014 36f30024 36f20024 20000000 00000024 
  00015280 36130024 29000000 3e000024 28007c80 36f30024 36130024 3e120024 
  3e05b814 36150024 3e103810 000000c0 00012310 3e100024 00015800 29003380 
  3e000024 30001b8c 60800024 00000024 28008405 00000024 291ff980 f4004010 
  00014d00 36130024 3e100024 00014dc0 291ff800 3e000024 00012310 38001bcc 
  60800024 00015280 28008985 00000024 29004d80 36f30024 36f01810 34059014 
  36f30024 36f20024 20000000 00000024 00015280 36130024 29000000 3e000024 
  28008780 36f30024 36130024 3e120024 3e05b814 36150024 3e103810 00000100 
  00012310 3e100024 00015b80 29003380 3e000024 30001b8c 60800024 00000024 
  28008f05 00000024 291ff980 f4004010 00014d00 36130024 3e100024 00014dc0 
  291ff800 3e000024 00012310 38001bcc 60800024 00015280 28009485 00000024 
  29004d80 36f30024 36f01810 34059014 36f30024 36f20024 20000000 00000024 
  00015280 36130024 29000000 3e000024 28009280 36f30024 36130024 3e120024 
  3e05b814 36150024 3e003841 6890b812 3e140024 290149c0 3e000024 003e0000 
  00021d10 00000281 38000024 00016500 3e100024 00000500 3e100024 29001f80 
  3e004024 00016c80 36e30024 3e100024 00000a00 3e100024 29001f80 3e004024 
  000174c0 36e30024 3e100024 00000f00 3e100024 29001f80 3e004024 00021d92 
  32001b4c 38001812 000001c0 00002290 38000024 36f40024 36f01801 34059014 
  36f30024 36f20024 20000000 00000024 36130024 3e120024 3e05b814 36150024 
  3e003841 00000281 00000140 3e00b850 00000090 3e147812 3e100024 00017d80 
  29003380 3e000024 00001900 30049bcc 32130024 3e148024 3e100024 29001f80 
  3e004024 00000802 30001b8c 40200024 3e100024 00002080 3e100024 29001f80 
  3e004024 00000fc2 30001b8c 40200024 3e100024 00002800 3e100024 29001f80 
  3e004024 30049b4c 00007010 32130024 29000000 f4004491 36f45812 36f09810 
  36f01801 34059014 36f30024 36f20024 20000000 00000024 36130024 3e120024 
  3e05b814 36150024 3e003841 00018000 3e00b843 00000782 00000283 3e013845 
  3e143812 00002250 3e100024 30000024 fe200024 48b20024 42000024 3e100024 
  29001f80 3e00c024 00018840 00000a01 36e30024 3e100024 30000024 fe200024 
  48ba0024 41400024 3e100024 000001c0 29001f80 3e000024 00018840 36e30024 
  3e100024 30000024 fe200024 48ba0024 41400024 3e100024 00003980 29001f80 
  3e000024 00018000 36e30024 3e100024 30000024 fe200024 48b20024 00000c81 
  41000024 3e100024 29001f80 3e00c024 34e31b4c 68921080 60120024 00000024 
  2800d145 00000024 00012352 00002250 30004024 32000024 61040024 00000200 
  2800c0c5 61020024 00000024 2800d015 00000024 00012392 32000024 60900024 
  b8802800 29004d80 38000024 00000283 00000782 00002252 003ff800 00021d10 
  3800184c 00013340 3e100024 32000024 fe200024 48b20024 42000024 3e100024 
  29001f80 3e00c024 00013b80 00000a01 36e30024 3e100024 32000024 fe200024 
  48ba0024 41400024 3e100024 000001c0 29001f80 3e000024 00013b80 36e30024 
  3e100024 32000024 fe200024 48ba0024 41400024 3e100024 00003980 29001f80 
  3e000024 00013340 36e30024 3e100024 32000024 fe200024 00000c80 48ba0024 
  40400024 3e100024 29001f80 3e00c024 00021d92 32001b4c 38001812 36f40024 
  36f11805 36f09803 36f01801 34059014 36f30024 36f20024 20000000 00000024 
  00002250 30000024 60900024 2800c0c0 38000024 30000024 60800024 00002250 
  2800d755 00000024 00012390 b8820000 60800024 00000024 2800d455 00000024 
  68920024 61820024 00012390 2800c0d5 00000024 30000024 40900024 38000024 
  00000200 00002250 38000024 29004d80 0000c0c8 30000024 40900024 2800c0c0 
  38000024 36130024 3e120024 3e05b814 36150024 3e007842 3e00f844 00002003 
  00005004 3e017846 3e01f850 00012310 3e047812 00002251 b882138c bf8e13d2 
  2800e200 b88a10c2 3000184c 3e100024 3e10c024 291ffc00 3e010024 60801b8c 
  00000024 2800e1d5 00000024 3e114024 3e118024 3e11c024 30000024 291ff880 
  3e000024 30001b4c 3e100024 3e10c024 291ffc00 3e010024 36e30024 61921bcc 
  31000024 40200024 61000024 00000024 2800dc91 00000024 00012310 3000184c 
  3e100024 00002000 3e100024 00005000 291ffc00 3e000024 00012411 b8801b8c 
  3e100024 31100024 31f04024 3e100024 3e104024 30000024 291ff880 3e000024 
  00013b91 00005010 2901e6c0 36c30024 00013b91 2901e6c0 00000010 36130024 
  29000000 3e040024 00002190 3a001bcc 30000024 60800024 00000024 2800ecc5 
  68900024 00002710 68900024 00013b91 38000024 2901e6c0 00000010 f4004400 
  36f45812 36f1d810 36f15806 36f0d804 36f05802 34059014 36f30024 36f20024 
  20000000 00000024 00002190 2800ecc0 68900024 36130024 3e120024 3e05b814 
  36150024 3e003841 6892b812 3e140024 290149c0 3e004024 003e0000 00021d10 
  38000024 000188c0 3e100024 00001180 3e100024 29001f80 3e004024 00016c80 
  36e30024 3e100024 00001680 3e100024 29001f80 3e004024 00018d80 36e30024 
  3e100024 00001b80 3e100024 29001f80 3e004024 00019600 36e30024 3e100024 
  00002080 3e100024 29001f80 3e004024 000174c0 36e30024 3e100024 00002580 
  3e100024 29001f80 3e004024 00021d92 32001b4c 38001812 000001c0 00002290 
  38000024 36f40024 36f01801 34059014 36f30024 36f20024 20000000 00000024 
  36130024 3e120024 3e05b814 36150024 3e007842 00000101 3e00f844 3e017850 
  00002290 3e048024 30000024 40900024 61020024 00019c01 28012451 40100024 
  f4004010 30000024 f4004008 20000000 00000024 000003c2 00000684 b886184c 
  291ff380 b88a0024 60800024 000003c2 28010f45 000006c4 29007f80 00000010 
  68900024 b8802000 00000050 38000024 000003c2 00000684 b886184c 291ff380 
  b88a0024 60800024 00000024 28010915 00000024 00019d40 36130024 29000000 
  3e000024 68901bcc 36f48024 36f15810 36f0d804 36f05802 34059014 36f30024 
  36f20024 20000000 00000024 000003c2 000006c4 b886184c 291ff380 b88a0024 
  60800024 000003c2 28011645 00000704 29008a80 00000010 68900024 b8802000 
  00000050 38000024 000003c2 000006c4 b886184c 291ff380 b88a0024 60800024 
  00000024 28011295 00000024 0001a000 36130024 29000000 3e000024 28010c80 
  68901bcc b886184c 291ff380 b88a0024 60800024 000003c2 28011d45 00000744 
  29007480 00000010 68900024 b8802000 00000050 38000024 000003c2 00000704 
  b886184c 291ff380 b88a0024 60800024 00000024 28011995 00000024 0001a2c0 
  36130024 29000000 3e000024 28010c80 68901bcc b886184c 291ff380 b88a0024 
  60800024 00000024 28012445 00000024 2900a100 00000010 68900024 b8802000 
  00000050 38000024 000003c2 00000744 b886184c 291ff380 b88a0024 60800024 
  00000024 28012095 00000024 0001a580 36130024 29000000 3e000024 28010c80 
  68901bcc 28010c80 b8800024 000020d2 000123d0 b1820000 32048024 32730024 
  32730024 32108024 32f0c024 f40040c3 6cd20024 000003c2 28012905 00000704 
  32100024 32f04024 0005cd01 38000024 b886184c 291ff380 b88a0024 60800024 
  00000024 28012445 00000024 29002480 00000010 68900024 b8802000 00000050 
  38000024 000003c2 00000704 b886184c 291ff380 b88a0024 60800024 00000024 
  28012c55 00000024 0001a2c0 36130024 29000000 3e000024 28010c80 68901bcc 
  000003c2 00000684 b886184c 291ff380 b88a0024 60800024 000003c2 28013805 
  000006c4 00000010 b880184c 2900ad80 3e000024 68909bcc b8802000 00000050 
  38000024 000003c2 00000684 b886184c 291ff380 b88a0024 60800024 00000024 
  28013455 00000024 00019d40 36130024 29000000 3e000024 28010c80 68901bcc 
  b886184c 291ff380 b88a0024 60800024 000003c2 28013f85 00000704 00000010 
  6890184c 2900ad80 3e000024 68909bcc b8802000 00000050 38000024 000003c2 
  000006c4 b886184c 291ff380 b88a0024 60800024 00000024 28013bd5 00000024 
  0001a000 36130024 29000000 3e000024 28010c80 68901bcc b886184c 291ff380 
  b88a0024 60800024 00000024 28012445 00000024 29002480 00000010 68900024 
  b8802000 00000050 38000024 000003c2 00000704 b886184c 291ff380 b88a0024 
  60800024 00000024 280142d5 00000024 0001a2c0 36130024 29000000 3e000024 
  28010c80 68901bcc 000003c2 00000684 b886184c 291ff380 b88a0024 60800024 
  000003c2 28014e85 000006c4 00000010 b880184c 2900ad80 3e000024 68909bcc 
  b8802000 00000050 38000024 000003c2 00000684 b886184c 291ff380 b88a0024 
  60800024 00000024 28014ad5 00000024 00019d40 36130024 29000000 3e000024 
  28010c80 68901bcc b886184c 291ff380 b88a0024 60800024 000003c2 28015605 
  00000704 00000010 6890184c 2900ad80 3e000024 68909bcc b8802000 00000050 
  38000024 000003c2 000006c4 b886184c 291ff380 b88a0024 60800024 00000024 
  28015255 00000024 0001a000 36130024 29000000 3e000024 28010c80 68901bcc 
  b886184c 291ff380 b88a0024 60800024 000003c2 28015d05 00000744 29002480 
  00000010 68900024 b8802000 00000050 38000024 000003c2 00000704 b886184c 
  291ff380 b88a0024 60800024 00000024 28015955 00000024 0001a2c0 36130024 
  29000000 3e000024 28010c80 68901bcc b886184c 291ff380 b88a0024 60800024 
  00000110 28012445 00000024 b880184c 3e100024 00000140 2900d840 3e000024 
  38001bcc 00000150 30004024 3e104024 3e100024 0001a840 29000000 3e000024 
  00000010 68909b4c b8802000 00000050 38000024 000003c2 00000744 b886184c 
  291ff380 b88a0024 60800024 00000024 28016355 00000024 0001a580 36130024 
  29000000 3e000024 28010c80 68901bcc 000003c2 00000704 b886184c 291ff380 
  b88a0024 60800024 00000024 28012445 00000024 29002480 00000010 68900024 
  b8802000 00000050 38000024 000003c2 00000704 b886184c 291ff380 b88a0024 
  60800024 00000024 28016ad5 00000024 0001a2c0 36130024 29000000 3e000024 
  28010c80 68901bcc 36130024 3e120024 3e05b814 36150024 3e003841 3e013845 
  68923810 00000050 30000024 60100024 00000584 280175c5 00000024 291ff3c0 
  689a184c 00000c80 36130024 291ff500 3e000024 36f30024 36f40024 36f11805 
  36f01801 34059014 36f30024 36f20024 20000000 00000024 00000584 291ff3c0 
  b88a184c 0000bb80 36130024 3e000024 291ff500 00017348 00002280 c040184c 
  3e007810 003fb590 30092000 00002000 30090001 b1020024 00000024 28017915 
  00000024 003fb350 30090000 36f05810 20000000 00000024 000003d7 36130024 
  3e120024 3e05b814 36850024 3e003841 3e00b843 3e013845 3e01b810 000027d0 
  68920000 60120024 00000024 2801b5c5 00000024 29017780 00008004 68904001 
  fe020024 48b60024 29017780 00020004 4082184c 68900024 fe020024 0001aac0 
  48ba0024 3e110024 3e114024 3e108024 3e10c024 29000000 3e000024 00019f80 
  b8824117 ff864084 48b61acc ffc20024 598645c4 42b60024 29000000 4e820024 
  29000000 00000024 1ffffdc6 00106245 29000000 000dd2c4 00000086 00119985 
  29000000 00199984 00000086 00180005 b88810cc 3c003041 3cf08024 34001041 
  29000000 34c08024 000001c6 b8880024 29000000 00190005 00133305 689c0024 
  29000000 00333304 000001c6 b8880024 29000000 00190005 60800024 000001c2 
  2801b545 b8800024 00000086 00180005 b88810cc 34001041 29000000 34c08024 
  000001c6 b8880024 29000000 00190005 00133305 689c0024 29000000 00333304 
  3413184c 3c003041 0001b040 68923382 3e100024 00002080 3e104024 29001f80 
  3e000024 000003c2 b8861b8c b88a0024 291ff380 000005c4 60800024 003e0000 
  2801b345 00021d10 00010000 3800184c 0001b340 3e100024 00002a80 3e104024 
  29001f80 3e000024 00000186 001e0005 36d3104c b8881000 30091041 2901f140 
  34e08024 60800024 00010000 2801b2d5 00000106 001e0005 b888104c 34001041 
  2901f140 34e08024 60800024 003ff800 28019dd5 00021d10 003e0000 000001c6 
  00190005 3800104c b8881000 30091041 2901f840 34e08024 6080184c 0001b4c0 
  2801b155 00000024 00000106 001e0005 36f3104c b8881000 30091041 2901f140 
  34e08024 6080104c 3009184c 2801ad15 0001b7c0 3e1013cc 68900024 3e100024 
  00003340 29001f80 3e000024 36e3104c 34001041 34e08024 3e100024 0001b900 
  3e104024 3e108024 29000000 3e000024 34331b4c 34001041 34c08024 3e100024 
  0001bc80 3e104024 3e108024 29000000 3e000024 00021d90 30e01b0c 68902000 
  00003190 38001810 36f18024 36f11805 36f09803 36f01801 34059014 36f30024 
  36f20024 20000000 00000024 3413184c 34001041 34308024 3e100024 0001b600 
  3e104024 3e108024 3e100024 29000000 3e0512cc 34531b0c 68900024 3e1512cc 
  3e100024 00003340 3e000024 29001f80 0001a4c8 68903840 3e100024 00003340 
  3e000024 29001f80 0001a4c8 28019dc0 00021d10 3800184c 0001b400 68903840 
  3e100024 00002a80 3e000024 29001f80 00019888 28019200 00190001 b8880024 
  29017780 00017fc8 36130024 3e020024 0009c400 36130024 291ff500 3e000024 
  00000010 30001bcc 60800024 00000024 2801ba95 b8800024 00000050 68900024 
  b8802000 00000010 2801b700 38000024 36130024 3e020024 003a9800 36130024 
  291ff500 3e000024 00003190 30001bcc 60800024 00000024 29017b85 0001bec8 
  b8800024 2801bb80 38000024 00003190 68900024 2801bb80 38000024 00000840 
  36130024 3e120024 3e05b814 36150024 3e007844 3e017851 0001c111 3e04b813 
  f4004413 f40044d0 f40044d2 32730024 29000000 32430024 00023610 3000138c 
  60920024 38004024 f40044d0 30730024 30330024 38000024 f4004490 00000100 
  29000000 34244024 f4004490 0001ffc1 000003c4 3033184c 30000024 32040024 
  30092000 003f0c10 30090000 c0100024 291ff3c0 b88aa000 00000384 291ff3c0 
  b88a184c 003fffc0 32130024 32f04024 61000024 000007c4 2801cf85 00000024 
  3213184c 291ff3c0 689a0804 000018c0 3b001813 b8801bd2 36f15811 36f05804 
  34059014 36f30024 36f20024 20000000 00000024 000007c4 291ff3c0 689a184c 
  000002c4 291ff3c0 689a184c 00000404 689a184c 291ff3c0 0001ccc8 003f1a10 
  36230024 3e05b814 36250024 3e007842 003fff42 00080001 3e00f844 00008004 
  3e017846 3e01f851 3e04b853 003f1ad2 3e03784e 3e03d38c 689a1387 f40041d1 
  2801da80 34400024 34130006 b62c3011 003f1a51 b88ea006 30090006 c65c0024 
  673ca006 34f46401 30090817 2801da81 30090817 696c0024 2441da46 00000024 
  30090806 39118024 60800024 003f1e13 2801e085 640e0024 00008003 2801dc91 
  000001c6 f4004003 6030104c 3c040024 003f1e90 6396a3c3 34f42001 c89cac06 
  a3660024 00000086 003f1e13 30090c07 b76c0024 00000086 2801de95 00000024 
  2801d680 00000024 003f1a10 003fff40 36f3c001 b1000024 b880a000 36f3580e 
  36f49813 36f1d811 36f15806 36f0d804 36f05802 34059014 20000000 36e30024 
  36130024 30107801 41823802 31108024 2801e645 61200041 00000024 2801e4c5 
  41820024 20000000 36f09801 36130024 3e007840 3e148024 3e047810 30091800 
  40800024 00000024 2801e955 00000352 30090810 30100024 40801811 00000001 
  2801f005 31107801 61020024 00000024 2801e945 41020024 00000024 2801ea55 
  00000024 30f30024 30093810 30102810 40801811 00000024 2801f005 31104024 
  41820024 00000024 2801ecc5 61020024 00000024 2801edd5 00000024 30092810 
  b08003cc 38001bd0 36f48024 20000000 36005bc0 d1544097 00000024 2801f784 
  418245c2 00000024 2801f604 62644017 00000024 20000008 00000000 20000019 
  00000040 f40045c0 6cea0024 00000024 20000019 00000040 20000000 00000000 
  00000024 20000008 00000040 20000019 00000000 2801f440 45500024 20000000 
  88800024 6ce20024 00000000 20000015 62620024 00000024 20000015 00000024 
  20000000 00000040 
<\ sizesize <- 1fae0000 > // 8110 bytes of payload.

//Section 2, 'votext_2':
<0300:0000> (MEMORY; PAGE 0)
  0300 0000 sizesize 
  0000 0000 0347  //address, align, size
  36230024 3e05b814 36150024 3e007842 3e00f844 3e017852 3e03784e 3e03d38c 
  34e00024 34104024 28000600 3430c024 60804010 30008024 28000455 003f1a90 
  f40040c2 30092002 003f1e10 00000082 30092002 f4004010 30130024 f4004400 
  61820024 003f1e10 28001ec5 00000024 00000082 62140024 00000042 28001191 
  62140024 00000082 28000e81 00000024 61224010 1ffffe02 b58a0004 ae2a0024 
  60800024 003f1a90 28000bd5 00000024 f40040c4 00000005 ae2a0024 00000082 
  30092004 003f1e10 30092002 30090004 b4240024 00000082 28000cd5 003f1e10 
  28000300 00000024 41924010 60800002 003f1a90 28001015 00000024 f40040c2 
  30092002 003f1e10 00000082 30092002 280005c0 f4004010 00008004 6418008c 
  00008002 28001351 003fff84 f4004042 003f1e90 b2440024 30092002 003f1a10 
  61228005 b5480024 f224a004 00000084 30090005 c5480024 6080a044 00080004 
  28001c05 30092004 b8884010 64200024 003f1a92 280018c1 69000024 24401840 
  30100024 30102800 30f30024 003f1e52 00080000 30092bc0 000000c0 4090a800 
  003f1e12 30090802 b2000024 00000080 28001a15 00000024 280005c0 00000024 
  00000005 65280024 00000024 28001e41 00000024 69480024 24401e04 003f1a90 
  30092003 280018c0 f4004010 00000080 30090001 b1020024 00000024 28001f15 
  00000024 b8801bcf 36f3580e 36f15812 36f0d804 36f05802 34059014 20000000 
  36e30024 00008000 36130024 3e120024 3e05b814 36150024 3e007842 3e00f844 
  3e017846 3e01f851 3e04938c f4004412 30004024 b1004490 608001cc 00000080 
  28004495 3420410c 000000c0 41920024 60100024 0001cc80 28002b01 00000024 
  c8900024 36f48024 36f1d811 36f15806 36f0d804 36f05802 34059014 36f30024 
  36f20024 20000000 00000024 0001cc80 41000024 f4004012 32000024 f4004008 
  20000000 00000024 003fffc0 6892004c 30f08024 62000024 00100007 280030c5 
  00000406 b886184c 68980024 46640024 291ff1c0 b88a0024 3013184c 291ff3c0 
  b88a0004 28002840 b8800024 00000003 000408c4 4664184c 291ff1c0 b88a0024 
  003f3192 00200040 30232800 003f2992 00020000 30002800 b0100024 60800024 
  00000081 28003555 00200000 003f31d2 30092800 30000024 b0100024 60800024 
  00000101 28003755 00020000 003f29d2 30092800 30000024 b0100024 00000024 
  28003055 00000024 003f31d0 68900024 28003040 30092000 003fffc0 30130024 
  30f04024 61020024 00100007 28003dc5 00000406 b886184c 68980024 46640024 
  291ff240 b88a0024 3013184c 291ff3c0 689a0004 28003040 00000024 003f3190 
  00200040 000408c4 4664a000 003f2990 00020000 b886a000 b88a184c 291ff240 
  00003048 00000584 291ff3c0 689a184c 003f1e10 00000080 30090001 b1000024 
  00000080 28004195 003f1e10 003f1a90 00156a80 30092000 003f1e10 00000080 
  28004100 30092000 003f1e11 30090402 b2040024 003f7fc2 280044d5 00000024 
  32000024 b0200024 28002680 3a000024 36130024 3e120024 3e05b814 36150024 
  3e007842 3e00f844 3e043851 00000011 00022010 3e148024 30048024 291ff280 
  00000104 60800024 00000024 2800ca49 00000024 3000184c 291ffbc0 3e000024 
  40821bcc 00001a00 61060024 00000024 28005b55 00000024 00000012 2900cac0 
  36130024 00000b92 2900cac0 36130024 000010d2 2900cac0 36130024 00001712 
  2900cac0 36130024 00001b12 2900cac0 36130024 00001f92 2900cac0 36130024 
  00002712 2900cac0 36130024 00002d12 2900cac0 36130024 000035d2 2900cac0 
  36130024 00003f52 2900cac0 36130024 00004852 2900cac0 36130024 00005212 
  2900cac0 36130024 00005bd2 2900cac0 36130024 00006b12 2900cac0 36130024 
  00007212 2900cac0 36130024 68900024 36f48024 36f41811 36f0d804 36f05802 
  34059014 36f30024 36f20024 20000000 00000024 00001440 61060024 00001880 
  28005e95 61060024 000020d0 68900010 30730024 30630024 b8802000 00002190 
  28005900 68902000 00000024 28006055 00000024 29017b80 00000024 28005900 
  00000100 000010c0 61060024 00000f80 280063d5 61060024 00002790 b8820000 
  60800024 00000140 28006355 00000024 68920024 28005900 38004024 00000f00 
  28006715 61060024 00000000 00002310 68902000 000020d0 30040024 30730024 
  30630024 38000024 28005900 00000080 00000ac0 28007015 61060024 00000000 
  00002310 68902000 000020d0 b8820010 f4004041 30730024 30630024 38100024 
  000000c0 30108024 30f0c024 f40040c3 6dc20024 00002850 28006f58 00000080 
  30004024 61000024 38000024 00002850 30000024 60920024 00000024 28006ed8 
  00000024 c8900024 38000024 28005900 000000c0 30000024 28006c80 40900024 
  00000b40 280078d5 00002210 30004024 61820024 00003904 280072c9 00023692 
  00000180 61000024 38000024 00002210 00004001 3000184c 40100812 291ff280 
  f4004011 00000183 29000000 43800002 00000783 6300184c 3e100024 00008180 
  3e100024 00007e40 29000000 3e000024 00000010 68909b4c b8802000 00000050 
  38000024 28005900 00000100 61060024 00001480 28008215 61060024 00002d00 
  30004024 61060024 00003904 28007c18 00023692 00000180 41000024 38000024 
  00002210 00004001 3000184c 40100812 291ff280 f4004011 00000183 29000000 
  43800002 00000783 6300184c 3e100024 00008180 3e100024 00007e40 29000000 
  3e000024 00000010 68909b4c b8802000 00000050 38000024 28005900 00000140 
  00001400 28008795 00002310 b8820000 60800024 00000024 28008455 00000024 
  68920024 61822001 00008400 280086d5 36130024 000080c0 29000000 3e000024 
  36f30024 28005900 00000180 3e000024 29000000 00008608 61060024 000020d0 
  28009015 00000024 f2020000 40100024 b8824010 30000024 60800024 00000a00 
  28008ad5 000020d0 68920024 3000984c 42040024 f4004092 3a004024 30004024 
  41000024 f4004010 30000024 60800024 00008980 28008f45 00000024 00008700 
  29000000 3e000024 36f30024 28005900 00000240 3e000024 29000000 00008e88 
  00001a40 61060024 00001ac0 28009b55 61060024 00000010 68900024 b8802000 
  00000050 38000024 00002290 30000024 40920024 00000100 60160024 00008c00 
  28009691 00000024 41000024 f4004010 30000024 f4004008 20000000 00000024 
  29008a80 00000024 28005900 00000380 28009680 00000024 6890184c 2900ad80 
  3e000024 28009680 36f30024 6890184c 2900ad80 3e000024 28009680 36f30024 
  6890184c 2900ad80 3e000024 28009680 36f30024 00001bc0 2800a615 61060024 
  00000010 68900024 b8802000 00000050 38000024 00002290 30000024 40920024 
  00000100 60160024 00008d40 2800a151 00000024 41000024 f4004010 30000024 
  f4004008 20000000 00000024 29007f80 00000024 28005900 00000340 2800a140 
  00000024 b880184c 2900ad80 3e000024 2800a140 36f30024 b880184c 2900ad80 
  3e000024 2800a140 36f30024 b880184c 2900ad80 3e000024 2800a140 36f30024 
  00001b00 2800ae95 61060024 00000010 68900024 b8802000 00000050 38000024 
  00002290 30000024 40920024 00000100 60160024 00008e80 2800ac91 00000024 
  41000024 f4004010 30000024 f4004008 20000000 00000024 29007480 0000ac88 
  29002480 00000024 28005900 00000300 29002480 0000ac88 29002480 0000ac88 
  29002480 0000ac88 00001cc0 2800b855 00000010 68900024 b8802000 00000050 
  68922000 00002290 30000024 60120024 00000024 2900a105 0000b7c8 00000101 
  30000024 60120024 00000024 2800b3c5 00000024 28005900 000002c0 b880184c 
  3e100024 00000140 2900d840 3e000024 00000110 38001bcc 00000150 30004024 
  3e104024 3e100024 00008fc0 29000000 3e000024 2800b340 36d30024 2800b340 
  00000024 61060024 00002350 2800c155 00000024 3000184c 3e100024 00009240 
  29000000 3e000024 00002210 30001bcc 3e100024 00009640 29000000 3e000024 
  000022d0 30001bcc 3e100024 00009a40 29000000 3e000024 00002310 30001bcc 
  3e100024 00009e40 29000000 3e000024 000021d0 30001bcc 3e100024 0000a240 
  29000000 3e000024 00000300 28005900 36e30024 29000000 f4004050 60800024 
  00001040 2800c545 00002850 00000c00 61000024 68902000 000020d0 30040024 
  30730024 30630024 38000024 28005900 00000280 61020024 000027d0 2800ca55 
  00000024 b8820000 60800024 00000024 2800c7d5 00000024 68920024 61822001 
  0000a652 2800c9d5 36130024 2900cac0 0000aa92 28005900 000002c0 2900cac0 
  0000c948 28005900 b8800024 3e120024 3e05b814 36150024 3e140024 00022050 
  30000024 3e100024 291ffc80 3e048024 60901b8c 00022050 2800d015 00000024 
  c8900024 36f40024 34059014 36f30024 36f20024 20000000 00000024 00022050 
  3000184c 3e100024 00000280 291ffc40 3e000024 2800ce40 36e30024 
<\ sizesize <- 0d220000 > // 3362 bytes of payload.

//Section 3, 'voxdata_3':
<0301:0000> (MEMORY; PAGE 1)
  0301 0000 sizesize 
  0000 0000 0736  //address, align, size
  0000 0000 0000 0000 0000 0000 0000 0000 
  0000 0000 0000 0000 0000 0000 0000 0000 
  0000 0000 0000 0000 0000 0000 0000 0000 
  0000 0000 0000 0000 0000 0000 0000 0000 
  0000 0000 0000 0000 0000 0000 0000 0000 
  0000 0000 0000 0000 0000 0000 0000 0000 
  0000 0000 0000 0000 0000 0000 0000 0000 
  0000 0000 0000 0000 0000 0000 0000 0000 
  0000 0000 0000 0000 0000 0000 0000 0000 
  0000 0000 0000 0000 0000 0000 0000 0000 
  0000 0000 0000 0000 0000 0000 0000 0000 
  0000 0000 0000 0000 0000 0000 0000 0000 
  0000 0000 0000 0000 0000 0000 0000 0000 
  0000 0000 0000 0000 0000 0000 0000 0000 
  0000 0000 0000 0000 0000 0000 0000 0000 
  0000 0000 0000 0000 0000 0000 0000 0000 
  0000 0000 0000 0000 038a 0000 0000 0000 
  005a 0000 0000 0000 0000 0000 0000 0000 
  0000 0000 0000 0000 0000 05ee 0000 0000 
  0000 0000 0000 000a 0000 038b 0001 0001 
  0391 0000 006c 006f 0061 0064 0065 0064 
  0020 0073 0063 0061 006e 0020 000a 0000 
  0061 006c 006c 006f 0063 0020 000a 0000 
  004d 0065 0074 0061 0064 0061 0074 0061 
  0020 0073 0070 0061 0063 0065 0020 006e 
  006f 0074 0020 0061 006c 006c 006f 0063 
  0061 0074 0065 0064 0021 0020 000a 0000 
  0065 0072 0072 006f 0072 0020 0063 0068 
  0065 0063 006b 0020 000a 0000 0077 0000 
  0053 003a 006c 006f 006f 006b 0075 0070 
  002f 0073 006f 006e 0067 0073 002e 0074 
  0078 0074 0000 004d 0061 0073 0074 0065 
  0072 0020 0053 006f 006e 0067 0020 006c 
  0069 0073 0074 0020 006e 006f 0074 0020 
  0063 0072 0065 0061 0074 0065 0064 0021 
  0020 000a 0000 0066 0069 006c 0065 0020 
  000a 0000 0046 003a 0000 0062 0065 0066 
  006f 0072 0065 0020 0073 0063 0061 006e 
  0020 000a 0000 006e 006f 0000 0046 003a 
  0025 0073 0000 0065 006e 0064 0020 006f 
  0066 0020 0073 0063 0061 006e 0020 000a 
  0000 0063 0079 0063 006c 0069 0063 0056 
  006f 006c 0074 0061 0067 0065 0000 0069 
  0064 006c 0065 0043 0068 0065 0063 006b 
  0000 0061 0075 0064 0069 006f 0064 0065 
  0063 0000 0025 0073 002a 002e 006d 0070 
  0033 0000 0072 0062 0023 0025 0064 0000 
  004d 0059 004d 0045 0054 0041 0000 0063 
  0061 0070 0033 0020 0062 0075 0074 0074 
  006f 006e 0020 0070 0072 0065 0073 0073 
  0065 0064 0021 0020 000a 0000 0046 0069 
  006c 0065 0020 0025 0064 0020 006e 006f 
  0074 0020 0066 006f 0075 006e 0064 002c 
  0020 0066 0069 006e 0069 0073 0068 0065 
  0064 0020 0070 006c 0061 0079 0069 006e 
  0067 002e 000a 0000 0043 006f 0075 006c 
  0064 006e 0027 0074 0020 0063 0072 0065 
  0061 0074 0065 0020 0061 0075 0064 0069 
  006f 0020 0064 0065 0063 006f 0064 0065 
  0072 000a 0000 0073 0000 004d 0050 0033 
  0000 0025 0073 002f 0025 0073 0000 0066 
  006f 0070 0065 006e 0028 0025 0073 002c 
  0020 0025 0073 0029 0020 000a 0000 0055 
  004e 004b 004e 004f 0057 004e 0000 0025 
  0073 007c 0025 0069 007c 0025 0073 007c 
  0020 000d 000a 0000 0025 0073 007c 0025 
  0069 007c 0025 0073 002f 007c 0020 000d 
  000a 0000 0066 0061 0069 006c 0065 0064 
  0020 0074 006f 0020 006f 0070 0065 006e 
  0020 006d 0065 0074 0061 0066 0069 006c 
  0065 0020 0070 006f 0069 006e 0074 0065 
  0072 0020 000a 0000 0050 0061 0074 0068 
  0020 006e 006f 0074 0020 0066 006f 0075 
  006e 0064 000a 0000 0053 0059 0053 0054 
  0045 004d 007e 0031 0000 0066 0061 0069 
  006c 0065 0064 0020 0074 006f 0020 006f 
  0070 0065 006e 0020 0064 0069 0072 0046 
  0069 006c 0065 0020 0066 006f 0072 0020 
  0073 006f 006d 0065 0020 0072 0065 0061 
  0073 006f 006e 0020 000a 0000 005b 0025 
  0073 005d 0020 005b 0025 0073 005d 0020 
  000a 0000 002e 0000 002e 002e 0000 0057 
  0065 0020 0077 0061 006e 0074 0020 0074 
  006f 0020 0073 006b 0069 0070 0020 005b 
  0025 0073 005d 0020 000a 0000 0063 0064 
  0000 0063 0075 0072 0072 0065 006e 0074 
  0044 0069 0072 0065 0063 0074 006f 0072 
  0079 0020 002d 0020 0025 0073 0020 000a 
  0000 0046 003a 002a 002e 006d 0070 0033 
  0000 0025 0073 0020 000a 0000 0053 003a 
  006c 006f 006f 006b 0075 0070 002f 0061 
  0072 0074 0069 0073 0074 0073 002f 0025 
  0073 002e 0074 0078 0074 0000 0066 0061 
  0069 006c 0065 0064 0020 0074 006f 0020 
  006f 0070 0065 006e 0020 006d 0065 0074 
  0061 0066 0069 006c 0065 0020 0070 006f 
  0069 006e 0074 0065 0072 000a 0000 0072 
  0062 0000 0066 0069 006c 0065 0020 0065 
  0078 0069 0073 0074 0073 0021 0020 000a 
  0000 0061 0000 0025 0073 0000 006f 0070 
  0065 006e 0065 0064 0020 0069 006e 0020 
  0061 0070 0070 0065 006e 0064 0020 006d 
  006f 0064 0065 0020 0063 006f 0072 0072 
  0065 0063 0074 006c 0079 0000 0064 0069 
  0064 0020 006e 006f 0074 0020 006f 0070 
  0065 006e 0020 0069 006e 0020 0061 0070 
  0070 0065 006e 0064 0020 006d 006f 0064 
  0065 0000 0063 006f 0075 006c 0064 0020 
  006e 006f 0074 0020 0066 0069 006e 0064 
  0020 0070 0061 0074 0068 0020 0074 006f 
  0020 0063 0072 0065 0061 0074 0065 0020 
  003a 0020 0025 0073 0020 000a 0000 0025 
  0073 007c 0025 0069 007c 0025 0073 007c 
  000a 0000 0000 002a 002e 006d 0070 0033 
  0000 002a 002e 006d 0070 0033 0000 0003 
  00f6 0001 0001 0000 0003 00ef 0003 0080 
  0002 0003 00cf 0000 00f2 00a0 0004 00ed 
  0064 0003 0012 0081 0005 00cb 0039 002c 
  0000 0034 0002 0002 00ea 0000 0000 0003 
  00e8 0085 0010 007a 0001 00c0 0021 0001 
  00c1 0011 0002 00c5 003f 003c 0001 00c7 
  00c6 0001 003a 0055 0001 0036 0008 0002 
  00b1 0000 001b 0002 00b6 000a 00a2 000f 
  00e0 0008 0020 0020 0008 0010 0008 0040 
  0004 0030 0000 0000 0000 0000 0000 0000 
  000f 00e1 0008 0014 0018 0000 000c 0005 
  0038 0048 0050 0000 0010 0008 0020 0020 
  0008 0000 002c 0000 0011 0000 0029 ffff 
  fc77 ffff 0006 0001 004e 0065 0078 0074 
  0020 0073 006f 006e 0067 0020 0062 0075 
  0074 0074 006f 006e 0020 0070 0072 0065 
  0073 0073 0065 0064 0021 0020 000a 0000 
  0052 0065 0070 0065 0061 0074 0020 002d 
  0020 0025 0069 0020 000a 0000 0053 0068 
  0075 0066 0066 006c 0065 0020 002d 0020 
  0025 0069 0020 000a 0000 0050 0041 0055 
  0053 0049 004e 0047 0020 000a 0000 0050 
  004c 0041 0059 0049 004e 0047 0020 000a 
  0000 007e 0025 0030 0034 0078 003d 0025 
  0064 000a 0000 004d 0075 0074 0065 0020 
  002d 0020 0025 0069 0020 000a 0000 0053 
  006f 006e 0067 0020 0073 0074 006f 0070 
  0070 0065 0064 0021 0020 000a 0000 0070 
  0072 0065 0076 0069 006f 0075 0073 0020 
  0053 006f 006e 0067 0020 0068 0069 0074 
  0021 0020 000a 0000 0000 ffff 0000 0000 
  0000 0000 004d 0041 0049 004e 0020 004d 
  0045 004e 0055 0000 0041 0052 0054 0049 
  0053 0054 0053 0000 0050 004c 0041 0059 
  004c 0049 0053 0054 0053 0000 0053 004f 
  004e 0047 0053 0000 0049 004e 0046 004f 
  0000 0042 0041 0043 004b 0000 0055 0050 
  0000 0044 004f 0057 004e 0000 0053 0045 
  004c 0045 0043 0054 0000 002d 002d 002d 
  002d 002d 002d 002d 002d 002d 002d 002d 
  002d 002d 002d 002d 002d 002d 002d 002d 
  002d 002d 002d 002d 002d 002d 002d 002d 
  002d 002d 002d 002d 002d 0000 007c 0000 
  0020 0020 0020 0020 0020 0020 0020 0020 
  0020 0020 0020 0020 0020 0020 0020 0020 
  0020 0020 0020 0020 0020 0020 0020 0020 
  0020 0020 0020 0020 0020 0020 0000 0054 
  006f 0070 0020 006f 0066 0020 004c 0069 
  0073 0074 0020 0062 0075 0066 0066 0065 
  0072 0020 003a 0020 0025 0073 0000 0041 
  0052 0054 0049 0053 0054 0053 0020 004d 
  0045 004e 0055 0000 0072 0062 0000 0053 
  003a 004c 004f 004f 004b 0055 0050 002f 
  0073 006f 006e 0067 0073 002e 0074 0078 
  0074 0000 0066 0061 0069 006c 0065 0064 
  0020 0074 006f 0020 006f 0070 0065 006e 
  0020 0066 0069 006c 0065 0020 000a 0000 
  0050 004c 0041 0059 004c 0049 0053 0054 
  0020 004d 0045 004e 0055 0000 0053 004f 
  004e 0047 0053 0020 004d 0045 004e 0055 
  0000 0053 0063 0061 006e 006e 0069 006e 
  0067 0020 0064 0069 0073 006b 0020 0066 
  006f 0072 0020 0073 006f 006e 0067 0073 
  002e 002e 002e 0000 0041 0020 0063 0072 
  0069 0074 0069 0063 0061 006c 0020 0065 
  0072 0072 006f 0072 0020 0068 0061 0073 
  0020 006f 0063 0063 0075 0072 0065 0064 
  0021 0000 0050 006c 0065 0061 0073 0065 
  0020 0074 0072 0079 0020 0072 0065 0073 
  0074 0061 0072 0074 0069 006e 0067 0020 
  0074 0068 0065 0020 0073 0079 0073 0074 
  0065 006d 0000 0049 0066 0020 0074 0068 
  0065 0020 0065 0072 0072 006f 0072 0020 
  0070 0065 0072 0073 0069 0073 0074 0073 
  002c 0020 0063 006f 006e 0074 0061 0063 
  0074 0020 0055 004d 004c 0000 0049 004e 
  0046 004f 0020 004d 0045 004e 0055 0000 
  0020 0020 0020 0020 0020 0020 0020 0020 
  0020 0020 0020 0020 0020 0020 0020 0020 
  0020 0020 0020 0020 0020 0020 0020 0020 
  0020 0020 0020 0020 0020 0020 0020 0020 
  0000 0020 0000 004e 006f 0020 0044 0072 
  0069 0076 0065 0020 0044 0065 0074 0065 
  0063 0074 0065 0064 0021 0000 004d 0061 
  006b 0065 0020 0073 0075 0072 0065 0020 
  0074 0068 0065 0020 0064 0072 0069 0076 
  0065 0020 0069 0073 0020 0070 006c 0075 
  0067 0067 0065 0064 0020 0069 006e 0000 
  0061 006e 0064 0020 0069 0073 0020 0066 
  006f 0072 006d 0061 0074 0074 0065 0064 
  0020 0061 0073 0020 0046 0041 0054 0000 
  0415 04c0 059c 051a 0493 0042 0055 0054 
  0054 004f 004e 0031 0030 0020 000a 0000 
  0042 0055 0054 0054 004f 004e 0031 0031 
  0020 000a 0000 0042 0055 0054 0054 004f 
  004e 0031 0032 0020 000a 0000 0042 0055 
  0054 0054 004f 004e 0031 0033 0020 000a 
  0000 0025 0073 0020 002d 0020 0025 0069 
  0020 000a 0000 0061 0075 0078 003d 0025 
  0034 0064 002c 0020 0020 0072 0063 0061 
  0070 003d 0025 0034 0064 0020 0020 000a 
  0000 0042 0041 0054 0054 0028 0020 0020 
  0020 0029 003a 0020 0000 0043 0048 0000 
  004e 0043 0000 0031 0030 0030 0025 0000 
  0020 0025 002e 0032 0066 0025 0000 004c 
  004f 0057 0021 0000 0042 0041 0054 0054 
  003a 0020 0025 002e 0033 0066 0025 0020 
  000a 0000 0056 006f 006c 0074 0061 0067 
  0065 003a 0020 0025 0032 002e 0032 0066 
  0056 0020 000a 0000 0000 07f6 06ff 07f8 
  0089 0747 0000 0000 0000 0000 0000 0000 
  0000 0000 0000 0000 0000 0000 0000 0000 
  0000 0000 0000 0000 0000 0000 0000 0000 
  0000 0000 0000 0000 0000 0042 0079 0074 
  0065 0077 0069 0064 0065 0020 0042 0075 
  0073 0000 00b2 00e6 00f5 0101 
<\ sizesize <- 0e720000 > // 3698 bytes of payload.

//Section 4, 'voxdata_5':
<0301:0000> (MEMORY; PAGE 1)
  0301 0000 sizesize 
  0000 0000 02bb  //address, align, size
  0027 0043 0027 0020 003d 0020 0054 006f 
  0067 0067 006c 0065 0020 0063 0061 0070 
  0061 0063 0069 0074 0069 0076 0065 0020 
  0062 0075 0074 0074 006f 006e 0020 006f 
  0075 0074 0070 0075 0074 0020 0074 006f 
  0020 0055 0041 0052 0054 0000 0027 003e 
  0027 0020 003d 0020 0050 006c 0061 0079 
  0020 006e 0065 0078 0074 0020 0073 006f 
  006e 0067 0000 0027 003c 0027 0020 003d 
  0020 0050 006c 0061 0079 0020 0070 0072 
  0065 0076 0069 006f 0075 0073 0020 0073 
  006f 006e 0067 0000 0027 002b 0027 0020 
  003d 0020 0056 006f 006c 0075 006d 0065 
  0020 0075 0070 0000 0027 002d 0027 0020 
  003d 0020 0056 006f 006c 0075 006d 0065 
  0020 0064 006f 0077 006e 0000 0027 0052 
  0027 0020 003d 0020 0054 006f 0067 0067 
  006c 0065 0020 0072 0065 0070 0065 0061 
  0074 0020 0073 006f 006e 0067 0020 006d 
  006f 0064 0065 0000 0027 0050 0027 0020 
  003d 0020 0054 006f 0067 0067 006c 0065 
  0020 0050 006c 0061 0079 002f 0050 0061 
  0075 0073 0065 0000 0027 0069 0027 0020 
  003d 0020 0050 0072 0065 0073 0073 0020 
  0074 006f 0070 0020 006c 0065 0066 0074 
  0020 0073 0063 0072 0065 0065 006e 0020 
  0062 0075 0074 0074 006f 006e 0000 0027 
  006b 0027 0020 003d 0020 0050 0072 0065 
  0073 0073 0020 0062 006f 0074 0074 006f 
  006d 0020 006c 0065 0066 0074 0020 0073 
  0063 0072 0065 0065 006e 0020 0062 0075 
  0074 0074 006f 006e 0000 0027 006f 0027 
  0020 003d 0020 0050 0072 0065 0073 0073 
  0020 0074 006f 0070 0020 0072 0069 0067 
  0068 0074 0020 0073 0063 0072 0065 0065 
  006e 0020 0062 0075 0074 0074 006f 006e 
  0000 0027 006c 0027 0020 003d 0020 0050 
  0072 0065 0073 0073 0020 0062 006f 0074 
  0074 006f 006d 0020 0072 0069 0067 0068 
  0074 0020 0073 0063 0072 0065 0065 006e 
  0020 0062 0075 0074 0074 006f 006e 0000 
  0027 0073 0027 0020 003d 0020 0050 0072 
  0069 006e 0074 0073 0020 0076 0061 0072 
  0069 006f 0075 0073 0020 0076 0061 0072 
  0069 0061 0062 006c 0065 0020 0073 0074 
  0061 0074 0075 0073 0065 0073 0000 0027 
  0041 0027 0020 003d 0020 0054 006f 0067 
  0067 006c 0065 0020 0077 0068 0069 0063 
  0068 0020 0061 006e 0061 006c 006f 0067 
  0020 0070 0069 006e 0020 0069 0073 0020 
  0072 0065 0061 0064 0020 0066 006f 0072 
  0020 0062 0061 0074 0074 0065 0072 0079 
  0020 0070 0065 0072 0063 0065 006e 0074 
  0061 0067 0065 0000 0027 0068 0027 0020 
  003d 0020 0050 0072 0069 006e 0074 0073 
  0020 0074 0068 0069 0073 0020 0068 0065 
  006c 0070 0020 006d 0065 006e 0075 0000 
  0027 0030 002d 0039 0027 0020 003d 0020 
  0073 0065 0074 0073 0020 0074 0068 0065 
  0020 0073 006f 006e 0067 0020 0069 006e 
  0064 0065 0078 0020 0074 006f 0020 0074 
  0068 0065 0020 0063 0068 006f 0073 0065 
  006e 0020 006e 0075 006d 0062 0065 0072 
  0000 007e 0025 0030 0034 0078 003d 0025 
  0064 000a 0000 0052 0065 0070 0065 0061 
  0074 0020 003a 0020 006f 0066 0066 0000 
  0052 0065 0070 0065 0061 0074 0020 003a 
  0020 006f 006e 0000 0050 0041 0055 0053 
  0049 004e 0047 0020 000a 0000 0050 004c 
  0041 0059 0049 004e 0047 0020 000a 0000 
  0258 025e 0268 0263 025c 0283 0289 0293 
  028e 0287 02ae 02b6 02b0 02b8 02b4 0025 
  0073 0020 002d 0020 0025 0069 0020 000a 
  0000 0043 0068 0061 0072 0067 0069 006e 
  0067 003a 0020 0020 0025 0069 0020 000a 
  0000 0056 006f 006c 0075 006d 0065 003a 
  0020 0020 0020 0020 0025 0069 0020 000a 
  0000 0053 0068 0075 0066 0066 006c 0069 
  006e 0067 003a 0020 0025 0069 0020 000a 
  0000 0052 0065 0070 0065 0061 0074 0069 
  006e 0067 003a 0020 0025 0069 0020 000a 
  0000 004d 0075 0074 0065 003a 0020 0020 
  0020 0020 0020 0020 0025 0069 0020 000a 
  0000 0061 0075 0078 0043 0068 006f 0069 
  0063 0065 0020 003d 0020 0041 0055 0058 
  0032 0000 0061 0075 0078 0063 0068 006f 
  0069 0063 0065 0020 003d 0020 0041 0055 
  0058 0033 0000 
<\ sizesize <- 057c0000 > // 1404 bytes of payload.

//Section 5, 'voxdata_bss_6':
<0301:0002> (MEMORY; PAGE 1)
  0301 0002 sizesize 
  0000 0000 01df  //address, align, size
<\ sizesize <- 00060000 > // 6 bytes of payload.

//Section 6, 'voydata_4':
<0302:0000> (MEMORY; PAGE 2)
  0302 0000 sizesize 
  0000 0000 000e  //address, align, size
  0004 002a 0000 0000 0000 0000 0004 002b 
  0000 0000 0000 0000 ffff 0000 
<\ sizesize <- 00220000 > // 34 bytes of payload.

<0a01:a0b2> (CRCCHECK)
  0a01 a0b2 sizesize 
  
<\ sizesize <- 00000000 > // 0 bytes of payload.

<0401:0000> (RELOCATION : SECTION NUMBER TO POKE TO)
  0401 0000 sizesize 
  // Relocations for section 0 follow.
<\ sizesize <- 00000000 > // 0 bytes of payload.
  // Relocations whose target (_volume) section is 3 (voxdata_3):
<0403:0003> (RELOCATION : INTERNAL)
  0403 0003 sizesize 
  0008 000f 06f7 0700 072e 0744 074e 077e 07a2 //to 8 locations add base of section 3.
<\ sizesize <- 00120000 > // 18 bytes of payload.
  // Relocations whose target (_LcdInit) section is 0 (votext):
<0403:0000> (RELOCATION : INTERNAL)
  0403 0000 sizesize 
  0004 0018 0532 0544 07dd //to 4 locations add base of section 0.
<\ sizesize <- 000a0000 > // 10 bytes of payload.
  // Relocations whose target (_loadNoDriveMenu) section is 1 (votext_1):
<0403:0001> (RELOCATION : INTERNAL)
  0403 0001 sizesize 
  0002 001e 002a //to 2 locations add base of section 1.
<\ sizesize <- 00060000 > // 6 bytes of payload.
  // Relocations whose target (_main) section is 0 (votext):
<0403:0000> (RELOCATION : INTERNAL)
  0403 0000 sizesize 
  002e 001f 0029 0049 0050 005d 0064 007b 008c 0099 009b 00b7 00bb 00d4 00ec 0100 010b 0112 0118 011d 0128 013a 014b 0151 0158 0166 0167 016b 0171 0179 0181 0189 0191 0199 01a1 01a9 01b1 01b9 01c3 01c8 01cd 01d4 01d6 01de 01ec 01f3 0208 //to 46 locations add base of section 0.
<\ sizesize <- 005e0000 > // 94 bytes of payload.
  // Relocations whose target (_loadScanningMenu) section is 0 (votext):
<0403:0000> (RELOCATION : INTERNAL)
  0403 0000 sizesize 
  0002 0028 0038 //to 2 locations add base of section 0.
<\ sizesize <- 00060000 > // 6 bytes of payload.
  // Relocations whose target (loadedsca_1) section is 3 (voxdata_3):
<0403:0003> (RELOCATION : INTERNAL)
  0403 0003 sizesize 
  0001 003a //to 1 location add base of section 3.
<\ sizesize <- 00040000 > // 4 bytes of payload.
  // Relocations whose target (_vo_printf) section is 0 (_vo_printf):
<0402:0000> (RELOCATION : EXTERNAL NAME '_vo_printf' CRUNCHED '_vo_printf')
  0402 0000 00160000 
  005f 0076 006f 005f 0070 0072 0069 006e 0074 0066 0000 
<\string>

<0404:0000> (RELOCATION : EXTERNAL)
  0404 0000 sizesize 
  0018 003c 0044 004c 0052 0060 0066 0076 009d 01cf 01dc 024b 02d4 02f9 0304 0370 03b1 05d1 0618 065c 06ba 06d6 070f 075d 079b //to 24 locations add base of section 0.
<\ sizesize <- 00320000 > // 50 bytes of payload.
  // Relocations whose target (_metadata) section is 5 (voxdata_bss_6):
<0403:0005> (RELOCATION : INTERNAL)
  0403 0005 sizesize 
  0006 0041 00c6 00f4 00fc 013c 02dc //to 6 locations add base of section 5.
<\ sizesize <- 000e0000 > // 14 bytes of payload.
  // Relocations whose target (alloc_2) section is 3 (voxdata_3):
<0403:0003> (RELOCATION : INTERNAL)
  0403 0003 sizesize 
  0001 0043 //to 1 location add base of section 3.
<\ sizesize <- 00040000 > // 4 bytes of payload.
  // Relocations whose target (errorchec_4) section is 3 (voxdata_3):
<0403:0003> (RELOCATION : INTERNAL)
  0403 0003 sizesize 
  0001 0048 //to 1 location add base of section 3.
<\ sizesize <- 00040000 > // 4 bytes of payload.
  // Relocations whose target (metadatas_3) section is 3 (voxdata_3):
<0403:0003> (RELOCATION : INTERNAL)
  0403 0003 sizesize 
  0001 004b //to 1 location add base of section 3.
<\ sizesize <- 00040000 > // 4 bytes of payload.
  // Relocations whose target (_loadCriticalErrorMenu) section is 1 (votext_1):
<0403:0001> (RELOCATION : INTERNAL)
  0403 0001 sizesize 
  0005 004e 0062 00b9 00ee 0247 //to 5 locations add base of section 1.
<\ sizesize <- 000c0000 > // 12 bytes of payload.
  // Relocations whose target (w_5) section is 3 (voxdata_3):
<0403:0003> (RELOCATION : INTERNAL)
  0403 0003 sizesize 
  0001 0054 //to 1 location add base of section 3.
<\ sizesize <- 00040000 > // 4 bytes of payload.
  // Relocations whose target (slookups_6) section is 3 (voxdata_3):
<0403:0003> (RELOCATION : INTERNAL)
  0403 0003 sizesize 
  0001 0056 //to 1 location add base of section 3.
<\ sizesize <- 00040000 > // 4 bytes of payload.
  // Relocations whose target (_openedFile) section is 3 (voxdata_3):
<0403:0003> (RELOCATION : INTERNAL)
  0403 0003 sizesize 
  0003 0059 009f 02dd //to 3 locations add base of section 3.
<\ sizesize <- 00080000 > // 8 bytes of payload.
  // Relocations whose target (file_8) section is 3 (voxdata_3):
<0403:0003> (RELOCATION : INTERNAL)
  0403 0003 sizesize 
  0001 005c //to 1 location add base of section 3.
<\ sizesize <- 00040000 > // 4 bytes of payload.
  // Relocations whose target (masterson_7) section is 3 (voxdata_3):
<0403:0003> (RELOCATION : INTERNAL)
  0403 0003 sizesize 
  0001 005f //to 1 location add base of section 3.
<\ sizesize <- 00040000 > // 4 bytes of payload.
  // Relocations whose target (f_9) section is 3 (voxdata_3):
<0403:0003> (RELOCATION : INTERNAL)
  0403 0003 sizesize 
  0003 0068 006d 008e //to 3 locations add base of section 3.
<\ sizesize <- 00080000 > // 8 bytes of payload.
  // Relocations whose target (_directory) section is 5 (voxdata_bss_6):
<0403:0005> (RELOCATION : INTERNAL)
  0403 0005 sizesize 
  0005 006a 0080 02b5 02cd 02db //to 5 locations add base of section 5.
<\ sizesize <- 000c0000 > // 12 bytes of payload.
  // Relocations whose target (_sprintf) section is 0 (_sprintf):
<0402:0000> (RELOCATION : EXTERNAL NAME '_sprintf' CRUNCHED '_sprintf')
  0402 0000 00120000 
  005f 0073 0070 0072 0069 006e 0074 0066 0000 
<\string>

<0404:0000> (RELOCATION : EXTERNAL)
  0404 0000 sizesize 
  000b 006b 0072 0081 00e0 00e6 012e 0200 0206 02e9 02f1 035a //to 11 locations add base of section 0.
<\ sizesize <- 00180000 > // 24 bytes of payload.
  // Relocations whose target (beforesca_10) section is 3 (voxdata_3):
<0403:0003> (RELOCATION : INTERNAL)
  0403 0003 sizesize 
  0001 0074 //to 1 location add base of section 3.
<\ sizesize <- 00040000 > // 4 bytes of payload.
  // Relocations whose target (_scanDirectoryForMP3) section is 0 (votext):
<0403:0000> (RELOCATION : INTERNAL)
  0403 0000 sizesize 
  0010 007a 0084 02ba 02d2 02d9 02e2 02ed 0302 0310 031c 031e 032f 033c 034a 0353 035c //to 16 locations add base of section 0.
<\ sizesize <- 00220000 > // 34 bytes of payload.
  // Relocations whose target (fs_12) section is 3 (voxdata_3):
<0403:0003> (RELOCATION : INTERNAL)
  0403 0003 sizesize 
  0001 007c //to 1 location add base of section 3.
<\ sizesize <- 00040000 > // 4 bytes of payload.
  // Relocations whose target (_strcmp) section is 1 (votext_1):
<0403:0001> (RELOCATION : INTERNAL)
  0403 0001 sizesize 
  0005 0088 0095 0318 032b 0393 //to 5 locations add base of section 1.
<\ sizesize <- 000c0000 > // 12 bytes of payload.
  // Relocations whose target (no_11) section is 3 (voxdata_3):
<0403:0003> (RELOCATION : INTERNAL)
  0403 0003 sizesize 
  0003 0089 0094 03b7 //to 3 locations add base of section 3.
<\ sizesize <- 00080000 > // 8 bytes of payload.
  // Relocations whose target (endofsca_13) section is 3 (voxdata_3):
<0403:0003> (RELOCATION : INTERNAL)
  0403 0003 sizesize 
  0001 008b //to 1 location add base of section 3.
<\ sizesize <- 00040000 > // 4 bytes of payload.
  // Relocations whose target (_scanDirectoryForDirectory) section is 0 (votext):
<0403:0000> (RELOCATION : INTERNAL)
  0403 0000 sizesize 
  000b 0090 036e 0387 038e 0397 039b 03a5 03ad 03af 03b6 03ba //to 11 locations add base of section 0.
<\ sizesize <- 00180000 > // 24 bytes of payload.
  // Relocations whose target (cyclicvolt_14) section is 3 (voxdata_3):
<0403:0003> (RELOCATION : INTERNAL)
  0403 0003 sizesize 
  0001 00a4 //to 1 location add base of section 3.
<\ sizesize <- 00040000 > // 4 bytes of payload.
  // Relocations whose target (_CreateTaskAndStack) section is 0 (votext):
<0403:0000> (RELOCATION : INTERNAL)
  0403 0000 sizesize 
  0005 00a5 00ac 058c 059a 05bd //to 5 locations add base of section 0.
<\ sizesize <- 000c0000 > // 12 bytes of payload.
  // Relocations whose target (_cyclicVoltage) section is 1 (votext_1):
<0403:0001> (RELOCATION : INTERNAL)
  0403 0001 sizesize 
  0001 00a6 //to 1 location add base of section 1.
<\ sizesize <- 00040000 > // 4 bytes of payload.
  // Relocations whose target (idlecheck_15) section is 3 (voxdata_3):
<0403:0003> (RELOCATION : INTERNAL)
  0403 0003 sizesize 
  0001 00a9 //to 1 location add base of section 3.
<\ sizesize <- 00040000 > // 4 bytes of payload.
  // Relocations whose target (_idleCheck) section is 1 (votext_1):
<0403:0001> (RELOCATION : INTERNAL)
  0403 0001 sizesize 
  0001 00aa //to 1 location add base of section 1.
<\ sizesize <- 00040000 > // 4 bytes of payload.
  // Relocations whose target (_voltageTask) section is 3 (voxdata_3):
<0403:0003> (RELOCATION : INTERNAL)
  0403 0003 sizesize 
  0001 00ab //to 1 location add base of section 3.
<\ sizesize <- 00040000 > // 4 bytes of payload.
  // Relocations whose target (_powerSavingTask) section is 3 (voxdata_3):
<0403:0003> (RELOCATION : INTERNAL)
  0403 0003 sizesize 
  0001 00ae //to 1 location add base of section 3.
<\ sizesize <- 00040000 > // 4 bytes of payload.
  // Relocations whose target (audiodec_16) section is 3 (voxdata_3):
<0403:0003> (RELOCATION : INTERNAL)
  0403 0003 sizesize 
  0001 00b0 //to 1 location add base of section 3.
<\ sizesize <- 00040000 > // 4 bytes of payload.
  // Relocations whose target (_decoderLibrary) section is 3 (voxdata_3):
<0403:0003> (RELOCATION : INTERNAL)
  0403 0003 sizesize 
  0007 00b3 00f0 00f8 0105 0222 0238 0297 //to 7 locations add base of section 3.
<\ sizesize <- 00100000 > // 16 bytes of payload.
  // Relocations whose target (_fileNum) section is 3 (voxdata_3):
<0403:0003> (RELOCATION : INTERNAL)
  0403 0003 sizesize 
  0002 00bd 00c7 //to 2 locations add base of section 3.
<\ sizesize <- 00060000 > // 6 bytes of payload.
  // Relocations whose target (_loadMainMenu) section is 1 (votext_1):
<0403:0001> (RELOCATION : INTERNAL)
  0403 0001 sizesize 
  0001 00bf //to 1 location add base of section 1.
<\ sizesize <- 00040000 > // 4 bytes of payload.
  // Relocations whose target (_monitorVoltage) section is 1 (votext_1):
<0403:0001> (RELOCATION : INTERNAL)
  0403 0001 sizesize 
  0001 00c1 //to 1 location add base of section 1.
<\ sizesize <- 00040000 > // 4 bytes of payload.
  // Relocations whose target (_fnumMode67fb28) section is 5 (voxdata_bss_6):
<0403:0005> (RELOCATION : INTERNAL)
  0403 0005 sizesize 
  0001 00c3 //to 1 location add base of section 5.
<\ sizesize <- 00040000 > // 4 bytes of payload.
  // Relocations whose target (_newSongSelected) section is 3 (voxdata_3):
<0403:0003> (RELOCATION : INTERNAL)
  0403 0003 sizesize 
  0002 00c4 0153 //to 2 locations add base of section 3.
<\ sizesize <- 00060000 > // 6 bytes of payload.
  // Relocations whose target (_audioDecoder) section is 3 (voxdata_3):
<0403:0003> (RELOCATION : INTERNAL)
  0403 0003 sizesize 
  0009 00c5 0159 021e 0242 028a 05d4 06a2 06ab 06e3 //to 9 locations add base of section 3.
<\ sizesize <- 00140000 > // 20 bytes of payload.
  // Relocations whose target (_powerSavingDelay) section is 1 (votext_1):
<0403:0001> (RELOCATION : INTERNAL)
  0403 0001 sizesize 
  0002 00ca 0165 //to 2 locations add base of section 1.
<\ sizesize <- 00060000 > // 6 bytes of payload.
  // Relocations whose target (_navigateMenus) section is 1 (votext_1):
<0403:0001> (RELOCATION : INTERNAL)
  0403 0001 sizesize 
  0002 00cc 016d //to 2 locations add base of section 1.
<\ sizesize <- 00060000 > // 6 bytes of payload.
  // Relocations whose target (_checkUART) section is 2 (votext_2):
<0403:0002> (RELOCATION : INTERNAL)
  0403 0002 sizesize 
  0002 00ce 0157 //to 2 locations add base of section 2.
<\ sizesize <- 00060000 > // 6 bytes of payload.
  // Relocations whose target (_running) section is 3 (voxdata_3):
<0403:0003> (RELOCATION : INTERNAL)
  0403 0003 sizesize 
  0003 00d0 0124 0291 //to 3 locations add base of section 3.
<\ sizesize <- 00080000 > // 8 bytes of payload.
  // Relocations whose target (_index) section is 5 (voxdata_bss_6):
<0403:0005> (RELOCATION : INTERNAL)
  0403 0005 sizesize 
  0002 00d6 01f6 //to 2 locations add base of section 5.
<\ sizesize <- 00060000 > // 6 bytes of payload.
  // Relocations whose target (_path) section is 5 (voxdata_bss_6):
<0403:0005> (RELOCATION : INTERNAL)
  0403 0005 sizesize 
  0002 00d8 01f8 //to 2 locations add base of section 5.
<\ sizesize <- 00060000 > // 6 bytes of payload.
  // Relocations whose target (_filespec) section is 3 (voxdata_3):
<0403:0003> (RELOCATION : INTERNAL)
  0403 0003 sizesize 
  0003 00db 0130 01fb //to 3 locations add base of section 3.
<\ sizesize <- 00080000 > // 8 bytes of payload.
  // Relocations whose target (smp3_17) section is 3 (voxdata_3):
<0403:0003> (RELOCATION : INTERNAL)
  0403 0003 sizesize 
  0003 00dd 01fd 02ec //to 3 locations add base of section 3.
<\ sizesize <- 00080000 > // 8 bytes of payload.
  // Relocations whose target (rbd_18) section is 3 (voxdata_3):
<0403:0003> (RELOCATION : INTERNAL)
  0403 0003 sizesize 
  0004 00e4 012c 0204 02e4 //to 4 locations add base of section 3.
<\ sizesize <- 000a0000 > // 10 bytes of payload.
  // Relocations whose target (_fp) section is 3 (voxdata_3):
<0403:0003> (RELOCATION : INTERNAL)
  0403 0003 sizesize 
  0003 010c 0136 0146 //to 3 locations add base of section 3.
<\ sizesize <- 00080000 > // 8 bytes of payload.
  // Relocations whose target (_offset) section is 5 (voxdata_bss_6):
<0403:0005> (RELOCATION : INTERNAL)
  0403 0005 sizesize 
  0001 0111 //to 1 location add base of section 5.
<\ sizesize <- 00040000 > // 4 bytes of payload.
  // Relocations whose target (_shuffle) section is 3 (voxdata_3):
<0403:0003> (RELOCATION : INTERNAL)
  0403 0003 sizesize 
  0002 0114 0653 //to 2 locations add base of section 3.
<\ sizesize <- 00060000 > // 6 bytes of payload.
  // Relocations whose target (_repeatSongStatus) section is 3 (voxdata_3):
<0403:0003> (RELOCATION : INTERNAL)
  0403 0003 sizesize 
  0005 0117 05d9 060f 0614 063b //to 5 locations add base of section 3.
<\ sizesize <- 000c0000 > // 12 bytes of payload.
  // Relocations whose target (mymeta_19) section is 3 (voxdata_3):
<0403:0003> (RELOCATION : INTERNAL)
  0403 0003 sizesize 
  0002 0143 0326 //to 2 locations add base of section 3.
<\ sizesize <- 00060000 > // 6 bytes of payload.
  // Relocations whose target (_PlayFile) section is 0 (votext):
<0403:0000> (RELOCATION : INTERNAL)
  0403 0000 sizesize 
  0004 0148 0241 0245 0260 //to 4 locations add base of section 0.
<\ sizesize <- 000a0000 > // 10 bytes of payload.
  // Relocations whose target (_checkFlags) section is 0 (votext):
<0403:0000> (RELOCATION : INTERNAL)
  0403 0000 sizesize 
  0004 014d 028b 029d 02a6 //to 4 locations add base of section 0.
<\ sizesize <- 000a0000 > // 10 bytes of payload.
  // Relocations whose target (_decoderTaskRunning) section is 0 (votext):
<0403:0000> (RELOCATION : INTERNAL)
  0403 0000 sizesize 
  0004 0161 0270 0273 027f //to 4 locations add base of section 0.
<\ sizesize <- 000a0000 > // 10 bytes of payload.
  // Relocations whose target (_playPause) section is 0 (votext):
<0403:0000> (RELOCATION : INTERNAL)
  0403 0000 sizesize 
  0009 0175 06a0 06aa 06b7 06c7 06d7 06dd 06e2 06e4 //to 9 locations add base of section 0.
<\ sizesize <- 00140000 > // 20 bytes of payload.
  // Relocations whose target (_nextSong) section is 0 (votext):
<0403:0000> (RELOCATION : INTERNAL)
  0403 0000 sizesize 
  0006 017d 05cd 05e4 05f6 05fb 05fd //to 6 locations add base of section 0.
<\ sizesize <- 000e0000 > // 14 bytes of payload.
  // Relocations whose target (_previousSong) section is 1 (votext_1):
<0403:0001> (RELOCATION : INTERNAL)
  0403 0001 sizesize 
  0001 0185 //to 1 location add base of section 1.
<\ sizesize <- 00040000 > // 4 bytes of payload.
  // Relocations whose target (_volumeUp) section is 0 (votext):
<0403:0000> (RELOCATION : INTERNAL)
  0403 0000 sizesize 
  0006 018d 06f5 06fb 072a 072f 0731 //to 6 locations add base of section 0.
<\ sizesize <- 000e0000 > // 14 bytes of payload.
  // Relocations whose target (_volumeDown) section is 0 (votext):
<0403:0000> (RELOCATION : INTERNAL)
  0403 0000 sizesize 
  0006 0195 0742 0749 0778 077d 077f //to 6 locations add base of section 0.
<\ sizesize <- 000e0000 > // 14 bytes of payload.
  // Relocations whose target (_volumeMute) section is 0 (votext):
<0403:0000> (RELOCATION : INTERNAL)
  0403 0000 sizesize 
  0009 019d 0790 0796 07a0 07b5 07c6 07ce 07d3 07d5 //to 9 locations add base of section 0.
<\ sizesize <- 00140000 > // 20 bytes of payload.
  // Relocations whose target (_repeatSong) section is 0 (votext):
<0403:0000> (RELOCATION : INTERNAL)
  0403 0000 sizesize 
  0007 01a5 060d 0613 0625 0637 063c 063e //to 7 locations add base of section 0.
<\ sizesize <- 00100000 > // 16 bytes of payload.
  // Relocations whose target (_stopSong) section is 1 (votext_1):
<0403:0001> (RELOCATION : INTERNAL)
  0403 0001 sizesize 
  0001 01ad //to 1 location add base of section 1.
<\ sizesize <- 00040000 > // 4 bytes of payload.
  // Relocations whose target (_shuffleSong) section is 0 (votext):
<0403:0000> (RELOCATION : INTERNAL)
  0403 0000 sizesize 
  0009 01b5 064e 0657 065f 066b 0671 0688 068d 068f //to 9 locations add base of section 0.
<\ sizesize <- 00140000 > // 20 bytes of payload.
  // Relocations whose target (_cbut) section is 3 (voxdata_3):
<0403:0003> (RELOCATION : INTERNAL)
  0403 0003 sizesize 
  0001 01c2 //to 1 location add base of section 3.
<\ sizesize <- 00040000 > // 4 bytes of payload.
  // Relocations whose target (cap3butto_20) section is 3 (voxdata_3):
<0403:0003> (RELOCATION : INTERNAL)
  0403 0003 sizesize 
  0001 01c7 //to 1 location add base of section 3.
<\ sizesize <- 00040000 > // 4 bytes of payload.
  // Relocations whose target (filedno_21) section is 3 (voxdata_3):
<0403:0003> (RELOCATION : INTERNAL)
  0403 0003 sizesize 
  0001 01db //to 1 location add base of section 3.
<\ sizesize <- 00040000 > // 4 bytes of payload.
  // Relocations whose target (_seed) section is 5 (voxdata_bss_6):
<0403:0005> (RELOCATION : INTERNAL)
  0403 0005 sizesize 
  0006 01e0 01eb 0650 065e 066d 068c //to 6 locations add base of section 5.
<\ sizesize <- 000e0000 > // 14 bytes of payload.
  // Relocations whose target (_randLFSR) section is 0 (votext):
<0403:0000> (RELOCATION : INTERNAL)
  0403 0000 sizesize 
  0002 01e2 0214 //to 2 locations add base of section 0.
<\ sizesize <- 00060000 > // 6 bytes of payload.
  // Relocations whose target (_numSongsDirectory) section is 3 (voxdata_3):
<0403:0003> (RELOCATION : INTERNAL)
  0403 0003 sizesize 
  0002 01e5 01ef //to 2 locations add base of section 3.
<\ sizesize <- 00060000 > // 6 bytes of payload.
  // Relocations whose target (divide16unsigned) section is 0 (divide16unsigned):
<0402:0000> (RELOCATION : EXTERNAL NAME 'divide16unsigned' CRUNCHED 'divide16unsiwZF')
  0402 0000 00200000 
  0064 0069 0076 0069 0064 0065 0031 0036 0075 006e 0073 0069 0077 005a 0046 0000 
<\string>

<0404:0000> (RELOCATION : EXTERNAL)
  0404 0000 sizesize 
  0002 01e7 01f1 //to 2 locations add base of section 0.
<\ sizesize <- 00060000 > // 6 bytes of payload.
  // Relocations whose target (_errorString) section is 3 (voxdata_3):
<0403:0003> (RELOCATION : INTERNAL)
  0403 0003 sizesize 
  0001 0220 //to 1 location add base of section 3.
<\ sizesize <- 00040000 > // 4 bytes of payload.
  // Relocations whose target (_PlayerThread) section is 0 (votext):
<0403:0000> (RELOCATION : INTERNAL)
  0403 0000 sizesize 
  0002 0228 0256 //to 2 locations add base of section 0.
<\ sizesize <- 00060000 > // 6 bytes of payload.
  // Relocations whose target (_eCode) section is 3 (voxdata_3):
<0403:0003> (RELOCATION : INTERNAL)
  0403 0003 sizesize 
  0001 0229 //to 1 location add base of section 3.
<\ sizesize <- 00040000 > // 4 bytes of payload.
  // Relocations whose target (couldntc_22) section is 3 (voxdata_3):
<0403:0003> (RELOCATION : INTERNAL)
  0403 0003 sizesize 
  0001 0249 //to 1 location add base of section 3.
<\ sizesize <- 00040000 > // 4 bytes of payload.
  // Relocations whose target (s_23) section is 3 (voxdata_3):
<0403:0003> (RELOCATION : INTERNAL)
  0403 0003 sizesize 
  0002 02a9 035e //to 2 locations add base of section 3.
<\ sizesize <- 00060000 > // 6 bytes of payload.
  // Relocations whose target (_fileName) section is 3 (voxdata_3):
<0403:0003> (RELOCATION : INTERNAL)
  0403 0003 sizesize 
  0005 02cb 030b 0331 0381 038a //to 5 locations add base of section 3.
<\ sizesize <- 000c0000 > // 12 bytes of payload.
  // Relocations whose target (pathnotf_31) section is 3 (voxdata_3):
<0403:0003> (RELOCATION : INTERNAL)
  0403 0003 sizesize 
  0002 02d1 0386 //to 2 locations add base of section 3.
<\ sizesize <- 00060000 > // 6 bytes of payload.
  // Relocations whose target (_filenum6d0408) section is 5 (voxdata_bss_6):
<0403:0005> (RELOCATION : INTERNAL)
  0403 0005 sizesize 
  0003 02e8 02f4 02fb //to 3 locations add base of section 5.
<\ sizesize <- 00080000 > // 8 bytes of payload.
  // Relocations whose target (fopens_26) section is 3 (voxdata_3):
<0403:0003> (RELOCATION : INTERNAL)
  0403 0003 sizesize 
  0001 02f7 //to 1 location add base of section 3.
<\ sizesize <- 00040000 > // 4 bytes of payload.
  // Relocations whose target (failedto_30) section is 3 (voxdata_3):
<0403:0003> (RELOCATION : INTERNAL)
  0403 0003 sizesize 
  0001 0303 //to 1 location add base of section 3.
<\ sizesize <- 00040000 > // 4 bytes of payload.
  // Relocations whose target (mp3_24) section is 3 (voxdata_3):
<0403:0003> (RELOCATION : INTERNAL)
  0403 0003 sizesize 
  0001 0312 //to 1 location add base of section 3.
<\ sizesize <- 00040000 > // 4 bytes of payload.
  // Relocations whose target (unknown_27) section is 3 (voxdata_3):
<0403:0003> (RELOCATION : INTERNAL)
  0403 0003 sizesize 
  0001 0329 //to 1 location add base of section 3.
<\ sizesize <- 00040000 > // 4 bytes of payload.
  // Relocations whose target (_strncpy) section is 0 (_strncpy):
<0402:0000> (RELOCATION : EXTERNAL NAME '_strncpy' CRUNCHED '_strncpy')
  0402 0000 00120000 
  005f 0073 0074 0072 006e 0063 0070 0079 0000 
<\string>

<0404:0000> (RELOCATION : EXTERNAL)
  0404 0000 sizesize 
  0001 0333 //to 1 location add base of section 0.
<\ sizesize <- 00040000 > // 4 bytes of payload.
  // Relocations whose target (sis_28) section is 3 (voxdata_3):
<0403:0003> (RELOCATION : INTERNAL)
  0403 0003 sizesize 
  0001 033b //to 1 location add base of section 3.
<\ sizesize <- 00040000 > // 4 bytes of payload.
  // Relocations whose target (sis_29) section is 3 (voxdata_3):
<0403:0003> (RELOCATION : INTERNAL)
  0403 0003 sizesize 
  0001 033e //to 1 location add base of section 3.
<\ sizesize <- 00040000 > // 4 bytes of payload.
  // Relocations whose target (_vo_fprintf) section is 0 (_vo_fprintf):
<0402:0000> (RELOCATION : EXTERNAL NAME '_vo_fprintf' CRUNCHED '_vo_fprintf')
  0402 0000 00180000 
  005f 0076 006f 005f 0066 0070 0072 0069 006e 0074 0066 0000 
<\string>

<0404:0000> (RELOCATION : EXTERNAL)
  0404 0000 sizesize 
  0002 0345 0352 //to 2 locations add base of section 0.
<\ sizesize <- 00060000 > // 6 bytes of payload.
  // Relocations whose target (_extension) section is 3 (voxdata_3):
<0403:0003> (RELOCATION : INTERNAL)
  0403 0003 sizesize 
  0001 0354 //to 1 location add base of section 3.
<\ sizesize <- 00040000 > // 4 bytes of payload.
  // Relocations whose target (ss_25) section is 3 (voxdata_3):
<0403:0003> (RELOCATION : INTERNAL)
  0403 0003 sizesize 
  0001 0357 //to 1 location add base of section 3.
<\ sizesize <- 00040000 > // 4 bytes of payload.
  // Relocations whose target (failedto_33) section is 3 (voxdata_3):
<0403:0003> (RELOCATION : INTERNAL)
  0403 0003 sizesize 
  0001 036d //to 1 location add base of section 3.
<\ sizesize <- 00040000 > // 4 bytes of payload.
  // Relocations whose target (system1_32) section is 3 (voxdata_3):
<0403:0003> (RELOCATION : INTERNAL)
  0403 0003 sizesize 
  0001 0390 //to 1 location add base of section 3.
<\ sizesize <- 00040000 > // 4 bytes of payload.
  // Relocations whose target (_TFTWriteVector) section is 0 (votext):
<0403:0000> (RELOCATION : INTERNAL)
  0403 0000 sizesize 
  0006 03dd 03e2 03ea 03ec 043c 053c //to 6 locations add base of section 0.
<\ sizesize <- 000e0000 > // 14 bytes of payload.
  // Relocations whose target (InitTemplate_1) section is 6 (voydata_4):
<0403:0006> (RELOCATION : INTERNAL)
  0403 0006 sizesize 
  0001 0408 //to 1 location add base of section 6.
<\ sizesize <- 00040000 > // 4 bytes of payload.
  // Relocations whose target (_MyLcdFilledRectangle) section is 0 (votext):
<0403:0000> (RELOCATION : INTERNAL)
  0403 0000 sizesize 
  000e 040c 0448 0453 045b 0465 0470 0485 048d 0496 049f 04a1 04ac 04ad 0563 //to 14 locations add base of section 0.
<\ sizesize <- 001e0000 > // 30 bytes of payload.
  // Relocations whose target (_devLcdHw) section is 5 (voxdata_bss_6):
<0403:0005> (RELOCATION : INTERNAL)
  0403 0005 sizesize 
  000a 0440 0441 0449 044a 045c 0467 0468 0482 048c 0533 //to 10 locations add base of section 5.
<\ sizesize <- 00160000 > // 22 bytes of payload.
  // Relocations whose target (_buff8ffb18) section is 5 (voxdata_bss_6):
<0403:0005> (RELOCATION : INTERNAL)
  0403 0005 sizesize 
  0002 04b7 04d2 //to 2 locations add base of section 5.
<\ sizesize <- 00060000 > // 6 bytes of payload.
  // Relocations whose target (_MyLcdTextOutXY) section is 0 (votext):
<0403:0000> (RELOCATION : INTERNAL)
  0403 0000 sizesize 
  000a 04c2 04d3 04e0 04e5 04f2 04fc 0500 050d 0519 0565 //to 10 locations add base of section 0.
<\ sizesize <- 00160000 > // 22 bytes of payload.
  // Relocations whose target (_latin1) section is 0 (_latin1):
<0402:0000> (RELOCATION : EXTERNAL NAME '_latin1' CRUNCHED '_latin1')
  0402 0000 00100000 
  005f 006c 0061 0074 0069 006e 0031 0000 
<\string>

<0404:0000> (RELOCATION : EXTERNAL)
  0404 0000 sizesize 
  0001 04d8 //to 1 location add base of section 0.
<\ sizesize <- 00040000 > // 4 bytes of payload.
  // Relocations whose target (_memset) section is 0 (_memset):
<0402:0000> (RELOCATION : EXTERNAL NAME '_memset' CRUNCHED '_memset')
  0402 0000 00100000 
  005f 006d 0065 006d 0073 0065 0074 0000 
<\string>

<0404:0000> (RELOCATION : EXTERNAL)
  0404 0000 sizesize 
  0003 04da 053f 0546 //to 3 locations add base of section 0.
<\ sizesize <- 00080000 > // 8 bytes of payload.
  // Relocations whose target (_hwInfo9d9368) section is 3 (voxdata_3):
<0403:0003> (RELOCATION : INTERNAL)
  0403 0003 sizesize 
  0001 0536 //to 1 location add base of section 3.
<\ sizesize <- 00040000 > // 4 bytes of payload.
  // Relocations whose target (_DevByteBusCreate) section is 1 (votext_1):
<0403:0001> (RELOCATION : INTERNAL)
  0403 0001 sizesize 
  0001 0537 //to 1 location add base of section 1.
<\ sizesize <- 00040000 > // 4 bytes of payload.
  // Relocations whose target (_ILI9341_init) section is 3 (voxdata_3):
<0403:0003> (RELOCATION : INTERNAL)
  0403 0003 sizesize 
  0001 0539 //to 1 location add base of section 3.
<\ sizesize <- 00040000 > // 4 bytes of payload.
  // Relocations whose target (_AddTask) section is 0 (_AddTask):
<0402:0000> (RELOCATION : EXTERNAL NAME '_AddTask' CRUNCHED '_AddTask')
  0402 0000 00120000 
  005f 0041 0064 0064 0054 0061 0073 006b 0000 
<\string>

<0404:0000> (RELOCATION : EXTERNAL)
  0404 0000 sizesize 
  0001 05b6 //to 1 location add base of section 0.
<\ sizesize <- 00040000 > // 4 bytes of payload.
  // Relocations whose target (nextsong_1) section is 3 (voxdata_3):
<0403:0003> (RELOCATION : INTERNAL)
  0403 0003 sizesize 
  0002 05cf 05fa //to 2 locations add base of section 3.
<\ sizesize <- 00060000 > // 6 bytes of payload.
  // Relocations whose target (_anyButtonPressed) section is 5 (voxdata_bss_6):
<0403:0005> (RELOCATION : INTERNAL)
  0403 0005 sizesize 
  0007 05db 061b 0674 06bd 0715 0763 07ac //to 7 locations add base of section 5.
<\ sizesize <- 00100000 > // 16 bytes of payload.
  // Relocations whose target (_idleMode) section is 5 (voxdata_bss_6):
<0403:0005> (RELOCATION : INTERNAL)
  0403 0005 sizesize 
  0007 05dd 061e 0677 06c0 0718 0766 07ae //to 7 locations add base of section 5.
<\ sizesize <- 00100000 > // 16 bytes of payload.
  // Relocations whose target (repeat_2) section is 3 (voxdata_3):
<0403:0003> (RELOCATION : INTERNAL)
  0403 0003 sizesize 
  0001 0612 //to 1 location add base of section 3.
<\ sizesize <- 00040000 > // 4 bytes of payload.
  // Relocations whose target (shuffle_3) section is 3 (voxdata_3):
<0403:0003> (RELOCATION : INTERNAL)
  0403 0003 sizesize 
  0001 0656 //to 1 location add base of section 3.
<\ sizesize <- 00040000 > // 4 bytes of payload.
  // Relocations whose target (playing_5) section is 3 (voxdata_3):
<0403:0003> (RELOCATION : INTERNAL)
  0403 0003 sizesize 
  0002 06b6 06d3 //to 2 locations add base of section 3.
<\ sizesize <- 00060000 > // 6 bytes of payload.
  // Relocations whose target (pausing_4) section is 3 (voxdata_3):
<0403:0003> (RELOCATION : INTERNAL)
  0403 0003 sizesize 
  0001 06b9 //to 1 location add base of section 3.
<\ sizesize <- 00040000 > // 4 bytes of payload.
  // Relocations whose target (divide16signed) section is 0 (divide16signed):
<0402:0000> (RELOCATION : EXTERNAL NAME 'divide16signed' CRUNCHED 'divide16signed')
  0402 0000 001e0000 
  0064 0069 0076 0069 0064 0065 0031 0036 0073 0069 0067 006e 0065 0064 0000 
<\string>

<0404:0000> (RELOCATION : EXTERNAL)
  0404 0000 sizesize 
  0002 0707 0755 //to 2 locations add base of section 0.
<\ sizesize <- 00060000 > // 6 bytes of payload.
  // Relocations whose target (xd_6) section is 3 (voxdata_3):
<0403:0003> (RELOCATION : INTERNAL)
  0403 0003 sizesize 
  0002 070e 075c //to 2 locations add base of section 3.
<\ sizesize <- 00060000 > // 6 bytes of payload.
  // Relocations whose target (_mute) section is 3 (voxdata_3):
<0403:0003> (RELOCATION : INTERNAL)
  0403 0003 sizesize 
  0003 0792 0797 07d2 //to 3 locations add base of section 3.
<\ sizesize <- 00080000 > // 8 bytes of payload.
  // Relocations whose target (mutei_7) section is 3 (voxdata_3):
<0403:0003> (RELOCATION : INTERNAL)
  0403 0003 sizesize 
  0001 0795 //to 1 location add base of section 3.
<\ sizesize <- 00040000 > // 4 bytes of payload.
  // Relocations whose target (scanningd_20) section is 3 (voxdata_3):
<0403:0003> (RELOCATION : INTERNAL)
  0403 0003 sizesize 
  0001 07e2 //to 1 location add base of section 3.
<\ sizesize <- 00040000 > // 4 bytes of payload.
  // Relocations whose target (_currentMenu) section is 3 (voxdata_3):
<0403:0003> (RELOCATION : INTERNAL)
  0403 0003 sizesize 
  0001 07ed //to 1 location add base of section 3.
<\ sizesize <- 00040000 > // 4 bytes of payload.
  // Relocations whose target (bytewideb_1) section is 3 (voxdata_3):
<0403:0003> (RELOCATION : INTERNAL)
  0403 0003 sizesize 
  0001 07f7 //to 1 location add base of section 3.
<\ sizesize <- 00040000 > // 4 bytes of payload.

<0401:0001> (RELOCATION : SECTION NUMBER TO POKE TO)
  0401 0001 sizesize 
  // Relocations for section 1 follow.
<\ sizesize <- 00000000 > // 0 bytes of payload.
  // Relocations whose target (_stopSong) section is 1 (votext_1):
<0403:0001> (RELOCATION : INTERNAL)
  0403 0001 sizesize 
  0004 000e 002e 0033 0035 //to 4 locations add base of section 1.
<\ sizesize <- 000a0000 > // 10 bytes of payload.
  // Relocations whose target (songstopp_8) section is 3 (voxdata_3):
<0403:0003> (RELOCATION : INTERNAL)
  0403 0003 sizesize 
  0002 0010 0032 //to 2 locations add base of section 3.
<\ sizesize <- 00060000 > // 6 bytes of payload.
  // Relocations whose target (_vo_printf) section is 0 (_vo_printf):
<0402:0000> (RELOCATION : EXTERNAL NAME '_vo_printf' CRUNCHED '_vo_printf')
  0402 0000 00160000 
  005f 0076 006f 005f 0070 0072 0069 006e 0074 0066 0000 
<\string>

<0404:0000> (RELOCATION : EXTERNAL)
  0404 0000 sizesize 
  0017 0012 004a 01b6 01fa 0226 0252 042f 0455 0471 048d 04bc 04dc 04fa 0516 0536 0554 0570 0586 0598 05b6 060d 069a 06a3 //to 23 locations add base of section 0.
<\ sizesize <- 00300000 > // 48 bytes of payload.
  // Relocations whose target (_audioDecoder) section is 3 (voxdata_3):
<0403:0003> (RELOCATION : INTERNAL)
  0403 0003 sizesize 
  0003 0014 004c 0493 //to 3 locations add base of section 3.
<\ sizesize <- 00080000 > // 8 bytes of payload.
  // Relocations whose target (_running) section is 3 (voxdata_3):
<0403:0003> (RELOCATION : INTERNAL)
  0403 0003 sizesize 
  0003 0019 03aa 03c2 //to 3 locations add base of section 3.
<\ sizesize <- 00080000 > // 8 bytes of payload.
  // Relocations whose target (_anyButtonPressed) section is 5 (voxdata_bss_6):
<0403:0005> (RELOCATION : INTERNAL)
  0403 0005 sizesize 
  0011 001b 0068 041f 0445 0461 047d 04ac 04c9 04e7 0506 0523 0541 0560 0588 05a6 06e0 06e9 //to 17 locations add base of section 5.
<\ sizesize <- 00240000 > // 36 bytes of payload.
  // Relocations whose target (_idleMode) section is 5 (voxdata_bss_6):
<0403:0005> (RELOCATION : INTERNAL)
  0403 0005 sizesize 
  0011 001d 006b 0422 0448 0464 0480 04af 04cf 04ed 0509 0529 0547 0563 058b 05a9 05c1 06e6 //to 17 locations add base of section 5.
<\ sizesize <- 00240000 > // 36 bytes of payload.
  // Relocations whose target (_previousSong) section is 1 (votext_1):
<0403:0001> (RELOCATION : INTERNAL)
  0403 0001 sizesize 
  0008 0046 005c 0065 0072 0080 0089 008e 0090 //to 8 locations add base of section 1.
<\ sizesize <- 00120000 > // 18 bytes of payload.
  // Relocations whose target (previouss_9) section is 3 (voxdata_3):
<0403:0003> (RELOCATION : INTERNAL)
  0403 0003 sizesize 
  0002 0048 008d //to 2 locations add base of section 3.
<\ sizesize <- 00060000 > // 6 bytes of payload.
  // Relocations whose target (_repeatSongStatus) section is 3 (voxdata_3):
<0403:0003> (RELOCATION : INTERNAL)
  0403 0003 sizesize 
  0001 004d //to 1 location add base of section 3.
<\ sizesize <- 00040000 > // 4 bytes of payload.
  // Relocations whose target (_shuffle) section is 3 (voxdata_3):
<0403:0003> (RELOCATION : INTERNAL)
  0403 0003 sizesize 
  0001 0055 //to 1 location add base of section 3.
<\ sizesize <- 00040000 > // 4 bytes of payload.
  // Relocations whose target (_fileNum) section is 3 (voxdata_3):
<0403:0003> (RELOCATION : INTERNAL)
  0403 0003 sizesize 
  0003 005b 0061 007e //to 3 locations add base of section 3.
<\ sizesize <- 00080000 > // 8 bytes of payload.
  // Relocations whose target (_LcdInit) section is 0 (votext):
<0403:0000> (RELOCATION : INTERNAL)
  0403 0000 sizesize 
  0004 009a 00d6 025d 03cc //to 4 locations add base of section 0.
<\ sizesize <- 000a0000 > // 10 bytes of payload.
  // Relocations whose target (_monitorVoltage) section is 1 (votext_1):
<0403:0001> (RELOCATION : INTERNAL)
  0403 0001 sizesize 
  0010 009c 00d8 05fb 0638 0658 066b 0674 0680 068b 06c4 06ca 06cb 06d4 06d5 06d9 06f6 //to 16 locations add base of section 1.
<\ sizesize <- 00220000 > // 34 bytes of payload.
  // Relocations whose target (mainmenu_1) section is 3 (voxdata_3):
<0403:0003> (RELOCATION : INTERNAL)
  0403 0003 sizesize 
  0001 009e //to 1 location add base of section 3.
<\ sizesize <- 00040000 > // 4 bytes of payload.
  // Relocations whose target (artists_2) section is 3 (voxdata_3):
<0403:0003> (RELOCATION : INTERNAL)
  0403 0003 sizesize 
  0001 00a8 //to 1 location add base of section 3.
<\ sizesize <- 00040000 > // 4 bytes of payload.
  // Relocations whose target (playlists_3) section is 3 (voxdata_3):
<0403:0003> (RELOCATION : INTERNAL)
  0403 0003 sizesize 
  0001 00ad //to 1 location add base of section 3.
<\ sizesize <- 00040000 > // 4 bytes of payload.
  // Relocations whose target (songs_4) section is 3 (voxdata_3):
<0403:0003> (RELOCATION : INTERNAL)
  0403 0003 sizesize 
  0001 00b4 //to 1 location add base of section 3.
<\ sizesize <- 00040000 > // 4 bytes of payload.
  // Relocations whose target (info_5) section is 3 (voxdata_3):
<0403:0003> (RELOCATION : INTERNAL)
  0403 0003 sizesize 
  0001 00bb //to 1 location add base of section 3.
<\ sizesize <- 00040000 > // 4 bytes of payload.
  // Relocations whose target (_currentMenu) section is 3 (voxdata_3):
<0403:0003> (RELOCATION : INTERNAL)
  0403 0003 sizesize 
  0005 00c4 00f1 027b 03f7 0408 //to 5 locations add base of section 3.
<\ sizesize <- 000c0000 > // 12 bytes of payload.
  // Relocations whose target (back_6) section is 3 (voxdata_3):
<0403:0003> (RELOCATION : INTERNAL)
  0403 0003 sizesize 
  0001 00e4 //to 1 location add base of section 3.
<\ sizesize <- 00040000 > // 4 bytes of payload.
  // Relocations whose target (up_7) section is 3 (voxdata_3):
<0403:0003> (RELOCATION : INTERNAL)
  0403 0003 sizesize 
  0002 00ee 00fb //to 2 locations add base of section 3.
<\ sizesize <- 00060000 > // 6 bytes of payload.
  // Relocations whose target (_drawCommonMenuItems) section is 1 (votext_1):
<0403:0001> (RELOCATION : INTERNAL)
  0403 0001 sizesize 
  0006 00ef 0134 01db 0207 0233 0290 //to 6 locations add base of section 1.
<\ sizesize <- 000e0000 > // 14 bytes of payload.
  // Relocations whose target (down_8) section is 3 (voxdata_3):
<0403:0003> (RELOCATION : INTERNAL)
  0403 0003 sizesize 
  0001 0102 //to 1 location add base of section 3.
<\ sizesize <- 00040000 > // 4 bytes of payload.
  // Relocations whose target (select_9) section is 3 (voxdata_3):
<0403:0003> (RELOCATION : INTERNAL)
  0403 0003 sizesize 
  0001 0109 //to 1 location add base of section 3.
<\ sizesize <- 00040000 > // 4 bytes of payload.
  // Relocations whose target (String_10) section is 3 (voxdata_3):
<0403:0003> (RELOCATION : INTERNAL)
  0403 0003 sizesize 
  0004 0112 0127 0309 0329 //to 4 locations add base of section 3.
<\ sizesize <- 000a0000 > // 10 bytes of payload.
  // Relocations whose target (String_11) section is 3 (voxdata_3):
<0403:0003> (RELOCATION : INTERNAL)
  0403 0003 sizesize 
  0008 0118 0120 0191 0312 031e 03a0 03a4 03b3 //to 8 locations add base of section 3.
<\ sizesize <- 00120000 > // 18 bytes of payload.
  // Relocations whose target (_pageNum) section is 3 (voxdata_3):
<0403:0003> (RELOCATION : INTERNAL)
  0403 0003 sizesize 
  0005 0131 0164 02fd 034a 0352 //to 5 locations add base of section 3.
<\ sizesize <- 000c0000 > // 12 bytes of payload.
  // Relocations whose target (_arrowSelection) section is 3 (voxdata_3):
<0403:0003> (RELOCATION : INTERNAL)
  0403 0003 sizesize 
  0008 0133 02c1 02f3 0305 0340 0347 0359 036d //to 8 locations add base of section 3.
<\ sizesize <- 00120000 > // 18 bytes of payload.
  // Relocations whose target (_drawMenuListOptions) section is 1 (votext_1):
<0403:0001> (RELOCATION : INTERNAL)
  0403 0001 sizesize 
  000f 0143 015a 016a 0178 017e 0185 0189 018f 019c 01d0 01f0 021c 0248 0301 035b //to 15 locations add base of section 1.
<\ sizesize <- 00200000 > // 32 bytes of payload.
  // Relocations whose target (String_12) section is 3 (voxdata_3):
<0403:0003> (RELOCATION : INTERNAL)
  0403 0003 sizesize 
  0001 0145 //to 1 location add base of section 3.
<\ sizesize <- 00040000 > // 4 bytes of payload.
  // Relocations whose target (_filehandle) section is 3 (voxdata_3):
<0403:0003> (RELOCATION : INTERNAL)
  0403 0003 sizesize 
  000c 0152 0169 0171 01a0 01d8 01ea 0204 0216 0230 0242 036b 038e //to 12 locations add base of section 3.
<\ sizesize <- 001a0000 > // 26 bytes of payload.
  // Relocations whose target (_buffer) section is 5 (voxdata_bss_6):
<0403:0005> (RELOCATION : INTERNAL)
  0403 0005 sizesize 
  0008 015f 0173 0193 01af 01b2 0368 0393 03a1 //to 8 locations add base of section 5.
<\ sizesize <- 00120000 > // 18 bytes of payload.
  // Relocations whose target (_endOfFile) section is 3 (voxdata_3):
<0403:0003> (RELOCATION : INTERNAL)
  0403 0003 sizesize 
  0003 016e 018e 02f2 //to 3 locations add base of section 3.
<\ sizesize <- 00080000 > // 8 bytes of payload.
  // Relocations whose target (_topOfList) section is 3 (voxdata_3):
<0403:0003> (RELOCATION : INTERNAL)
  0403 0003 sizesize 
  0003 0175 01a1 0396 //to 3 locations add base of section 3.
<\ sizesize <- 00080000 > // 8 bytes of payload.
  // Relocations whose target (_strtok) section is 1 (votext_1):
<0403:0001> (RELOCATION : INTERNAL)
  0403 0001 sizesize 
  0004 0192 03a2 03a5 03b5 //to 4 locations add base of section 1.
<\ sizesize <- 000a0000 > // 10 bytes of payload.
  // Relocations whose target (topoflis_13) section is 3 (voxdata_3):
<0403:0003> (RELOCATION : INTERNAL)
  0403 0003 sizesize 
  0001 01b5 //to 1 location add base of section 3.
<\ sizesize <- 00040000 > // 4 bytes of payload.
  // Relocations whose target (artistsme_14) section is 3 (voxdata_3):
<0403:0003> (RELOCATION : INTERNAL)
  0403 0003 sizesize 
  0001 01da //to 1 location add base of section 3.
<\ sizesize <- 00040000 > // 4 bytes of payload.
  // Relocations whose target (_loadArtistsMenu) section is 1 (votext_1):
<0403:0001> (RELOCATION : INTERNAL)
  0403 0001 sizesize 
  0004 01e0 01ee 01fc 0460 //to 4 locations add base of section 1.
<\ sizesize <- 000a0000 > // 10 bytes of payload.
  // Relocations whose target (rb_15) section is 3 (voxdata_3):
<0403:0003> (RELOCATION : INTERNAL)
  0403 0003 sizesize 
  0003 01e4 0210 023c //to 3 locations add base of section 3.
<\ sizesize <- 00080000 > // 8 bytes of payload.
  // Relocations whose target (slookups_16) section is 3 (voxdata_3):
<0403:0003> (RELOCATION : INTERNAL)
  0403 0003 sizesize 
  0003 01e7 0213 023f //to 3 locations add base of section 3.
<\ sizesize <- 00080000 > // 8 bytes of payload.
  // Relocations whose target (failedto_17) section is 3 (voxdata_3):
<0403:0003> (RELOCATION : INTERNAL)
  0403 0003 sizesize 
  0006 01ed 01f8 0219 0224 0245 0250 //to 6 locations add base of section 3.
<\ sizesize <- 000e0000 > // 14 bytes of payload.
  // Relocations whose target (playlistm_18) section is 3 (voxdata_3):
<0403:0003> (RELOCATION : INTERNAL)
  0403 0003 sizesize 
  0001 0206 //to 1 location add base of section 3.
<\ sizesize <- 00040000 > // 4 bytes of payload.
  // Relocations whose target (_loadPlaylistsMenu) section is 1 (votext_1):
<0403:0001> (RELOCATION : INTERNAL)
  0403 0001 sizesize 
  0004 020c 021a 0228 041e //to 4 locations add base of section 1.
<\ sizesize <- 000a0000 > // 10 bytes of payload.
  // Relocations whose target (songsmenu_19) section is 3 (voxdata_3):
<0403:0003> (RELOCATION : INTERNAL)
  0403 0003 sizesize 
  0001 0232 //to 1 location add base of section 3.
<\ sizesize <- 00040000 > // 4 bytes of payload.
  // Relocations whose target (_loadSongsMenu) section is 1 (votext_1):
<0403:0001> (RELOCATION : INTERNAL)
  0403 0001 sizesize 
  0004 0238 0246 0254 0444 //to 4 locations add base of section 1.
<\ sizesize <- 000a0000 > // 10 bytes of payload.
  // Relocations whose target (acritical_21) section is 3 (voxdata_3):
<0403:0003> (RELOCATION : INTERNAL)
  0403 0003 sizesize 
  0001 0263 //to 1 location add base of section 3.
<\ sizesize <- 00040000 > // 4 bytes of payload.
  // Relocations whose target (pleasetry_22) section is 3 (voxdata_3):
<0403:0003> (RELOCATION : INTERNAL)
  0403 0003 sizesize 
  0002 0269 03d7 //to 2 locations add base of section 3.
<\ sizesize <- 00060000 > // 6 bytes of payload.
  // Relocations whose target (iftheerr_23) section is 3 (voxdata_3):
<0403:0003> (RELOCATION : INTERNAL)
  0403 0003 sizesize 
  0002 0270 03ec //to 2 locations add base of section 3.
<\ sizesize <- 00060000 > // 6 bytes of payload.
  // Relocations whose target (_metadata) section is 5 (voxdata_bss_6):
<0403:0005> (RELOCATION : INTERNAL)
  0403 0005 sizesize 
  0001 028c //to 1 location add base of section 5.
<\ sizesize <- 00040000 > // 4 bytes of payload.
  // Relocations whose target (infomenu_24) section is 3 (voxdata_3):
<0403:0003> (RELOCATION : INTERNAL)
  0403 0003 sizesize 
  0001 028f //to 1 location add base of section 3.
<\ sizesize <- 00040000 > // 4 bytes of payload.
  // Relocations whose target (_currentTitle) section is 5 (voxdata_bss_6):
<0403:0005> (RELOCATION : INTERNAL)
  0403 0005 sizesize 
  0001 02aa //to 1 location add base of section 5.
<\ sizesize <- 00040000 > // 4 bytes of payload.
  // Relocations whose target (_strcpy) section is 0 (_strcpy):
<0402:0000> (RELOCATION : EXTERNAL NAME '_strcpy' CRUNCHED '_strcpy')
  0402 0000 00100000 
  005f 0073 0074 0072 0063 0070 0079 0000 
<\string>

<0404:0000> (RELOCATION : EXTERNAL)
  0404 0000 sizesize 
  0001 02ac //to 1 location add base of section 0.
<\ sizesize <- 00040000 > // 4 bytes of payload.
  // Relocations whose target (String_25) section is 3 (voxdata_3):
<0403:0003> (RELOCATION : INTERNAL)
  0403 0003 sizesize 
  0002 02bb 02e1 //to 2 locations add base of section 3.
<\ sizesize <- 00060000 > // 6 bytes of payload.
  // Relocations whose target (String_26) section is 3 (voxdata_3):
<0403:0003> (RELOCATION : INTERNAL)
  0403 0003 sizesize 
  0002 02ca 02d6 //to 2 locations add base of section 3.
<\ sizesize <- 00060000 > // 6 bytes of payload.
  // Relocations whose target (_moveBoxSelection) section is 1 (votext_1):
<0403:0001> (RELOCATION : INTERNAL)
  0403 0001 sizesize 
  000d 02f0 02f8 02fb 0343 0348 034e 0353 035c 035f 04cb 04e9 0525 0543 //to 13 locations add base of section 1.
<\ sizesize <- 001c0000 > // 28 bytes of payload.
  // Relocations whose target (_retrieveSongLocation) section is 1 (votext_1):
<0403:0001> (RELOCATION : INTERNAL)
  0403 0001 sizesize 
  0006 0370 0379 038c 03af 03c3 057e //to 6 locations add base of section 1.
<\ sizesize <- 000e0000 > // 14 bytes of payload.
  // Relocations whose target (_atoi) section is 0 (_atoi):
<0402:0000> (RELOCATION : EXTERNAL NAME '_atoi' CRUNCHED '_atoi')
  0402 0000 000c0000 
  005f 0061 0074 006f 0069 0000 
<\string>

<0404:0000> (RELOCATION : EXTERNAL)
  0404 0000 sizesize 
  0001 03a8 //to 1 location add base of section 0.
<\ sizesize <- 00040000 > // 4 bytes of payload.
  // Relocations whose target (_newSongSelected) section is 3 (voxdata_3):
<0403:0003> (RELOCATION : INTERNAL)
  0403 0003 sizesize 
  0001 03b1 //to 1 location add base of section 3.
<\ sizesize <- 00040000 > // 4 bytes of payload.
  // Relocations whose target (nodrived_27) section is 3 (voxdata_3):
<0403:0003> (RELOCATION : INTERNAL)
  0403 0003 sizesize 
  0001 03d1 //to 1 location add base of section 3.
<\ sizesize <- 00040000 > // 4 bytes of payload.
  // Relocations whose target (makesure_28) section is 3 (voxdata_3):
<0403:0003> (RELOCATION : INTERNAL)
  0403 0003 sizesize 
  0001 03de //to 1 location add base of section 3.
<\ sizesize <- 00040000 > // 4 bytes of payload.
  // Relocations whose target (andisfor_29) section is 3 (voxdata_3):
<0403:0003> (RELOCATION : INTERNAL)
  0403 0003 sizesize 
  0001 03e5 //to 1 location add base of section 3.
<\ sizesize <- 00040000 > // 4 bytes of payload.
  // Relocations whose target (JumpTable_30) section is 3 (voxdata_3):
<0403:0003> (RELOCATION : INTERNAL)
  0403 0003 sizesize 
  0001 040d //to 1 location add base of section 3.
<\ sizesize <- 00040000 > // 4 bytes of payload.
  // Relocations whose target (_navigateMenus) section is 1 (votext_1):
<0403:0001> (RELOCATION : INTERNAL)
  0403 0001 sizesize 
  0029 040e 041c 042b 0442 0451 0457 045e 046d 0473 047a 0489 048f 0491 049e 04a9 04b8 04be 04c7 04d8 04de 04e5 04f6 04fc 0503 0512 0518 0521 0532 0538 053f 0550 0556 055d 056c 0572 0579 0594 059a 05a3 05b2 05b8 //to 41 locations add base of section 1.
<\ sizesize <- 00540000 > // 84 bytes of payload.
  // Relocations whose target (button10_31) section is 3 (voxdata_3):
<0403:0003> (RELOCATION : INTERNAL)
  0403 0003 sizesize 
  0003 042d 04da 0534 //to 3 locations add base of section 3.
<\ sizesize <- 00080000 > // 8 bytes of payload.
  // Relocations whose target (button11_32) section is 3 (voxdata_3):
<0403:0003> (RELOCATION : INTERNAL)
  0403 0003 sizesize 
  0003 0453 04f8 0552 //to 3 locations add base of section 3.
<\ sizesize <- 00080000 > // 8 bytes of payload.
  // Relocations whose target (button12_33) section is 3 (voxdata_3):
<0403:0003> (RELOCATION : INTERNAL)
  0403 0003 sizesize 
  0005 046f 04ba 0514 056e 05b4 //to 5 locations add base of section 3.
<\ sizesize <- 000c0000 > // 12 bytes of payload.
  // Relocations whose target (_loadInfoMenu) section is 1 (votext_1):
<0403:0001> (RELOCATION : INTERNAL)
  0403 0001 sizesize 
  0001 047c //to 1 location add base of section 1.
<\ sizesize <- 00040000 > // 4 bytes of payload.
  // Relocations whose target (button13_34) section is 3 (voxdata_3):
<0403:0003> (RELOCATION : INTERNAL)
  0403 0003 sizesize 
  0002 048b 0596 //to 2 locations add base of section 3.
<\ sizesize <- 00060000 > // 6 bytes of payload.
  // Relocations whose target (_lastTimeSeconds) section is 3 (voxdata_3):
<0403:0003> (RELOCATION : INTERNAL)
  0403 0003 sizesize 
  0001 0494 //to 1 location add base of section 3.
<\ sizesize <- 00040000 > // 4 bytes of payload.
  // Relocations whose target (_loadMainMenu) section is 1 (votext_1):
<0403:0001> (RELOCATION : INTERNAL)
  0403 0001 sizesize 
  0004 04ab 0505 055f 05a5 //to 4 locations add base of section 1.
<\ sizesize <- 000a0000 > // 10 bytes of payload.
  // Relocations whose target (_path) section is 5 (voxdata_bss_6):
<0403:0005> (RELOCATION : INTERNAL)
  0403 0005 sizesize 
  0001 0578 //to 1 location add base of section 5.
<\ sizesize <- 00040000 > // 4 bytes of payload.
  // Relocations whose target (_index) section is 5 (voxdata_bss_6):
<0403:0005> (RELOCATION : INTERNAL)
  0403 0005 sizesize 
  0002 057d 0581 //to 2 locations add base of section 5.
<\ sizesize <- 00060000 > // 6 bytes of payload.
  // Relocations whose target (si_35) section is 3 (voxdata_3):
<0403:0003> (RELOCATION : INTERNAL)
  0403 0003 sizesize 
  0001 0585 //to 1 location add base of section 3.
<\ sizesize <- 00040000 > // 4 bytes of payload.
  // Relocations whose target (_powerSavingDelay) section is 1 (votext_1):
<0403:0001> (RELOCATION : INTERNAL)
  0403 0001 sizesize 
  0002 05c5 05dd //to 2 locations add base of section 1.
<\ sizesize <- 00060000 > // 6 bytes of payload.
  // Relocations whose target (_GetSarValue) section is 1 (votext_1):
<0403:0001> (RELOCATION : INTERNAL)
  0403 0001 sizesize 
  0004 05e7 05fd 0602 06d8 //to 4 locations add base of section 1.
<\ sizesize <- 000a0000 > // 10 bytes of payload.
  // Relocations whose target (_auxChoice) section is 3 (voxdata_3):
<0403:0003> (RELOCATION : INTERNAL)
  0403 0003 sizesize 
  0001 05f7 //to 1 location add base of section 3.
<\ sizesize <- 00040000 > // 4 bytes of payload.
  // Relocations whose target (aux4d_1) section is 3 (voxdata_3):
<0403:0003> (RELOCATION : INTERNAL)
  0403 0003 sizesize 
  0001 0607 //to 1 location add base of section 3.
<\ sizesize <- 00040000 > // 4 bytes of payload.
  // Relocations whose target (divide32unsigned) section is 0 (divide32unsigned):
<0402:0000> (RELOCATION : EXTERNAL NAME 'divide32unsigned' CRUNCHED 'divide32unsil7N')
  0402 0000 00200000 
  0064 0069 0076 0069 0064 0065 0033 0032 0075 006e 0073 0069 006c 0037 004e 0000 
<\string>

<0404:0000> (RELOCATION : EXTERNAL)
  0404 0000 sizesize 
  0001 0616 //to 1 location add base of section 0.
<\ sizesize <- 00040000 > // 4 bytes of payload.
  // Relocations whose target (uint_to_df) section is 0 (uint_to_df):
<0402:0000> (RELOCATION : EXTERNAL NAME 'uint_to_df' CRUNCHED 'uint_to_df')
  0402 0000 00160000 
  0075 0069 006e 0074 005f 0074 006f 005f 0064 0066 0000 
<\string>

<0404:0000> (RELOCATION : EXTERNAL)
  0404 0000 sizesize 
  0001 0618 //to 1 location add base of section 0.
<\ sizesize <- 00040000 > // 4 bytes of payload.
  // Relocations whose target (df_mul) section is 0 (df_mul):
<0402:0000> (RELOCATION : EXTERNAL NAME 'df_mul' CRUNCHED 'df_mul')
  0402 0000 000e0000 
  0064 0066 005f 006d 0075 006c 0000 
<\string>

<0404:0000> (RELOCATION : EXTERNAL)
  0404 0000 sizesize 
  0004 061c 0620 062c 0642 //to 4 locations add base of section 0.
<\ sizesize <- 000a0000 > // 10 bytes of payload.
  // Relocations whose target (df_sub) section is 0 (df_sub):
<0402:0000> (RELOCATION : EXTERNAL NAME 'df_sub' CRUNCHED 'df_sub')
  0402 0000 000e0000 
  0064 0066 005f 0073 0075 0062 0000 
<\string>

<0404:0000> (RELOCATION : EXTERNAL)
  0404 0000 sizesize 
  0002 0628 063e //to 2 locations add base of section 0.
<\ sizesize <- 00060000 > // 6 bytes of payload.
  // Relocations whose target (df_div) section is 0 (df_div):
<0402:0000> (RELOCATION : EXTERNAL NAME 'df_div' CRUNCHED 'df_div')
  0402 0000 000e0000 
  0064 0066 005f 0064 0069 0076 0000 
<\string>

<0404:0000> (RELOCATION : EXTERNAL)
  0404 0000 sizesize 
  0002 0630 0646 //to 2 locations add base of section 0.
<\ sizesize <- 00060000 > // 6 bytes of payload.
  // Relocations whose target (df_lt) section is 0 (df_lt):
<0402:0000> (RELOCATION : EXTERNAL NAME 'df_lt' CRUNCHED 'df_lt')
  0402 0000 000c0000 
  0064 0066 005f 006c 0074 0000 
<\string>

<0404:0000> (RELOCATION : EXTERNAL)
  0404 0000 sizesize 
  0001 0634 //to 1 location add base of section 0.
<\ sizesize <- 00040000 > // 4 bytes of payload.
  // Relocations whose target (batt_2) section is 3 (voxdata_3):
<0403:0003> (RELOCATION : INTERNAL)
  0403 0003 sizesize 
  0001 064a //to 1 location add base of section 3.
<\ sizesize <- 00040000 > // 4 bytes of payload.
  // Relocations whose target (ch_3) section is 3 (voxdata_3):
<0403:0003> (RELOCATION : INTERNAL)
  0403 0003 sizesize 
  0001 065c //to 1 location add base of section 3.
<\ sizesize <- 00040000 > // 4 bytes of payload.
  // Relocations whose target (df_gt) section is 1 (votext_1):
<0403:0001> (RELOCATION : INTERNAL)
  0403 0001 sizesize 
  0003 0667 0670 0687 //to 3 locations add base of section 1.
<\ sizesize <- 00080000 > // 8 bytes of payload.
  // Relocations whose target (df_eq) section is 1 (votext_1):
<0403:0001> (RELOCATION : INTERNAL)
  0403 0001 sizesize 
  0001 067c //to 1 location add base of section 1.
<\ sizesize <- 00040000 > // 4 bytes of payload.
  // Relocations whose target (String_5) section is 3 (voxdata_3):
<0403:0003> (RELOCATION : INTERNAL)
  0403 0003 sizesize 
  0001 067f //to 1 location add base of section 3.
<\ sizesize <- 00040000 > // 4 bytes of payload.
  // Relocations whose target (low_7) section is 3 (voxdata_3):
<0403:0003> (RELOCATION : INTERNAL)
  0403 0003 sizesize 
  0001 068c //to 1 location add base of section 3.
<\ sizesize <- 00040000 > // 4 bytes of payload.
  // Relocations whose target (batt3f_8) section is 3 (voxdata_3):
<0403:0003> (RELOCATION : INTERNAL)
  0403 0003 sizesize 
  0001 0697 //to 1 location add base of section 3.
<\ sizesize <- 00040000 > // 4 bytes of payload.
  // Relocations whose target (voltage_9) section is 3 (voxdata_3):
<0403:0003> (RELOCATION : INTERNAL)
  0403 0003 sizesize 
  0001 06a0 //to 1 location add base of section 3.
<\ sizesize <- 00040000 > // 4 bytes of payload.
  // Relocations whose target (_voltageChecked) section is 5 (voxdata_bss_6):
<0403:0005> (RELOCATION : INTERNAL)
  0403 0005 sizesize 
  0003 06a8 06f2 06fb //to 3 locations add base of section 5.
<\ sizesize <- 00080000 > // 8 bytes of payload.
  // Relocations whose target (f_6) section is 3 (voxdata_3):
<0403:0003> (RELOCATION : INTERNAL)
  0403 0003 sizesize 
  0001 06b7 //to 1 location add base of section 3.
<\ sizesize <- 00040000 > // 4 bytes of payload.
  // Relocations whose target (_sprintf) section is 0 (_sprintf):
<0402:0000> (RELOCATION : EXTERNAL NAME '_sprintf' CRUNCHED '_sprintf')
  0402 0000 00120000 
  005f 0073 0070 0072 0069 006e 0074 0066 0000 
<\string>

<0404:0000> (RELOCATION : EXTERNAL)
  0404 0000 sizesize 
  0001 06bb //to 1 location add base of section 0.
<\ sizesize <- 00040000 > // 4 bytes of payload.
  // Relocations whose target (nc_4) section is 3 (voxdata_3):
<0403:0003> (RELOCATION : INTERNAL)
  0403 0003 sizesize 
  0001 06ce //to 1 location add base of section 3.
<\ sizesize <- 00040000 > // 4 bytes of payload.
  // Relocations whose target (_idleCheck) section is 1 (votext_1):
<0403:0001> (RELOCATION : INTERNAL)
  0403 0001 sizesize 
  0002 06e4 06ea //to 2 locations add base of section 1.
<\ sizesize <- 00060000 > // 6 bytes of payload.
  // Relocations whose target (_cyclicVoltage) section is 1 (votext_1):
<0403:0001> (RELOCATION : INTERNAL)
  0403 0001 sizesize 
  0003 06f7 06f9 06fd //to 3 locations add base of section 1.
<\ sizesize <- 00080000 > // 8 bytes of payload.
  // Relocations whose target (_devByteBusDefaults) section is 3 (voxdata_3):
<0403:0003> (RELOCATION : INTERNAL)
  0403 0003 sizesize 
  0001 0706 //to 1 location add base of section 3.
<\ sizesize <- 00040000 > // 4 bytes of payload.
  // Relocations whose target (_memcpy) section is 0 (_memcpy):
<0402:0000> (RELOCATION : EXTERNAL NAME '_memcpy' CRUNCHED '_memcpy')
  0402 0000 00100000 
  005f 006d 0065 006d 0063 0070 0079 0000 
<\string>

<0404:0000> (RELOCATION : EXTERNAL)
  0404 0000 sizesize 
  0002 070c 0718 //to 2 locations add base of section 0.
<\ sizesize <- 00060000 > // 6 bytes of payload.
  // Relocations whose target (_DevByteBusCreate) section is 1 (votext_1):
<0403:0001> (RELOCATION : INTERNAL)
  0403 0001 sizesize 
  0002 072e 0746 //to 2 locations add base of section 1.
<\ sizesize <- 00060000 > // 6 bytes of payload.
  // Relocations whose target (_DevByteBusRead) section is 1 (votext_1):
<0403:0001> (RELOCATION : INTERNAL)
  0403 0001 sizesize 
  0007 0758 0763 0766 076c 076f 077e 0780 //to 7 locations add base of section 1.
<\ sizesize <- 00100000 > // 16 bytes of payload.
  // Relocations whose target (_strcmp@1) section is 1 (votext_1):
<0403:0001> (RELOCATION : INTERNAL)
  0403 0001 sizesize 
  0001 0794 //to 1 location add base of section 1.
<\ sizesize <- 00040000 > // 4 bytes of payload.
  // Relocations whose target (_strcmp@0) section is 1 (votext_1):
<0403:0001> (RELOCATION : INTERNAL)
  0403 0001 sizesize 
  0001 0797 //to 1 location add base of section 1.
<\ sizesize <- 00040000 > // 4 bytes of payload.
  // Relocations whose target (tok_1) section is 1 (votext_1):
<0403:0001> (RELOCATION : INTERNAL)
  0403 0001 sizesize 
  0001 07a2 //to 1 location add base of section 1.
<\ sizesize <- 00040000 > // 4 bytes of payload.
  // Relocations whose target (_strtok_oldaddr) section is 6 (voydata_4):
<0403:0006> (RELOCATION : INTERNAL)
  0403 0006 sizesize 
  0001 07a3 //to 1 location add base of section 6.
<\ sizesize <- 00040000 > // 4 bytes of payload.
  // Relocations whose target (tok_done) section is 1 (votext_1):
<0403:0001> (RELOCATION : INTERNAL)
  0403 0001 sizesize 
  0002 07a8 07b6 //to 2 locations add base of section 1.
<\ sizesize <- 00060000 > // 6 bytes of payload.
  // Relocations whose target (tok_next) section is 1 (votext_1):
<0403:0001> (RELOCATION : INTERNAL)
  0403 0001 sizesize 
  0001 07ac //to 1 location add base of section 1.
<\ sizesize <- 00040000 > // 4 bytes of payload.
  // Relocations whose target (tok_next2) section is 1 (votext_1):
<0403:0001> (RELOCATION : INTERNAL)
  0403 0001 sizesize 
  0001 07af //to 1 location add base of section 1.
<\ sizesize <- 00040000 > // 4 bytes of payload.
  // Relocations whose target (tok_next3) section is 1 (votext_1):
<0403:0001> (RELOCATION : INTERNAL)
  0403 0001 sizesize 
  0001 07ba //to 1 location add base of section 1.
<\ sizesize <- 00040000 > // 4 bytes of payload.
  // Relocations whose target (tok_next4) section is 1 (votext_1):
<0403:0001> (RELOCATION : INTERNAL)
  0403 0001 sizesize 
  0001 07bd //to 1 location add base of section 1.
<\ sizesize <- 00040000 > // 4 bytes of payload.
  // Relocations whose target (gt_sne) section is 1 (votext_1):
<0403:0001> (RELOCATION : INTERNAL)
  0403 0001 sizesize 
  0001 07c7 //to 1 location add base of section 1.
<\ sizesize <- 00040000 > // 4 bytes of payload.
  // Relocations whose target (gt_schk) section is 1 (votext_1):
<0403:0001> (RELOCATION : INTERNAL)
  0403 0001 sizesize 
  0001 07ca //to 1 location add base of section 1.
<\ sizesize <- 00040000 > // 4 bytes of payload.
  // Relocations whose target (gt_sexp) section is 1 (votext_1):
<0403:0001> (RELOCATION : INTERNAL)
  0403 0001 sizesize 
  0001 07dd //to 1 location add base of section 1.
<\ sizesize <- 00040000 > // 4 bytes of payload.

<0401:0002> (RELOCATION : SECTION NUMBER TO POKE TO)
  0401 0002 sizesize 
  // Relocations for section 2 follow.
<\ sizesize <- 00000000 > // 0 bytes of payload.
  // Relocations whose target (_DevByteBusWrite) section is 2 (votext_2):
<0403:0002> (RELOCATION : INTERNAL)
  0403 0002 sizesize 
  0014 000a 000e 001a 001f 0022 002a 0036 0038 003d 0044 0049 0058 005d 005f 006c 006e 0073 0076 0079 007f //to 20 locations add base of section 2.
<\ sizesize <- 002a0000 > // 42 bytes of payload.
  // Relocations whose target (_DevByteBusIoctl) section is 2 (votext_2):
<0403:0002> (RELOCATION : INTERNAL)
  0403 0002 sizesize 
  000f 0098 009e 00b7 00c1 00d1 00d9 00e0 00e4 00eb 00f5 0100 0109 0110 0116 011a //to 15 locations add base of section 2.
<\ sizesize <- 00200000 > // 32 bytes of payload.
  // Relocations whose target (JumpTable_2) section is 3 (voxdata_3):
<0403:0003> (RELOCATION : INTERNAL)
  0403 0003 sizesize 
  0002 009d 00ab //to 2 locations add base of section 3.
<\ sizesize <- 00060000 > // 6 bytes of payload.
  // Relocations whose target (_checkUART) section is 2 (votext_2):
<0403:0002> (RELOCATION : INTERNAL)
  0403 0002 sizesize 
  0045 012b 0134 0170 0178 017b 017f 0184 018a 018d 0190 019a 019d 01ae 01b7 01bb 01be 01c1 01c6 01e1 01e5 01eb 0206 0209 020e 0213 0219 021d 0220 0228 0235 023b 023f 0243 0250 025a 025c 0261 0266 026b 026e 027b 0285 0287 028c 0291 0296 0299 02a6 02af 02b2 02b5 02b7 02b9 02bb 02c6 02cb 02cd 02dd 02df 02e3 0303 0309 0313 0317 031c 0321 0325 0328 0329 //to 69 locations add base of section 2.
<\ sizesize <- 008c0000 > // 140 bytes of payload.
  // Relocations whose target (ctogg_1) section is 4 (voxdata_5):
<0403:0004> (RELOCATION : INTERNAL)
  0403 0004 sizesize 
  0001 0136 //to 1 location add base of section 4.
<\ sizesize <- 00040000 > // 4 bytes of payload.
  // Relocations whose target (_vo_puts) section is 2 (votext_2):
<0403:0002> (RELOCATION : INTERNAL)
  0403 0002 sizesize 
  0013 0137 013a 013d 0140 0143 0146 0149 014c 014f 0152 0155 0158 015b 015e 0161 0323 0327 0336 0345 //to 19 locations add base of section 2.
<\ sizesize <- 00280000 > // 40 bytes of payload.
  // Relocations whose target (play_2) section is 4 (voxdata_5):
<0403:0004> (RELOCATION : INTERNAL)
  0403 0004 sizesize 
  0001 0139 //to 1 location add base of section 4.
<\ sizesize <- 00040000 > // 4 bytes of payload.
  // Relocations whose target (play_3) section is 4 (voxdata_5):
<0403:0004> (RELOCATION : INTERNAL)
  0403 0004 sizesize 
  0001 013c //to 1 location add base of section 4.
<\ sizesize <- 00040000 > // 4 bytes of payload.
  // Relocations whose target (volu_4) section is 4 (voxdata_5):
<0403:0004> (RELOCATION : INTERNAL)
  0403 0004 sizesize 
  0001 013f //to 1 location add base of section 4.
<\ sizesize <- 00040000 > // 4 bytes of payload.
  // Relocations whose target (volu_5) section is 4 (voxdata_5):
<0403:0004> (RELOCATION : INTERNAL)
  0403 0004 sizesize 
  0001 0142 //to 1 location add base of section 4.
<\ sizesize <- 00040000 > // 4 bytes of payload.
  // Relocations whose target (rtogg_6) section is 4 (voxdata_5):
<0403:0004> (RELOCATION : INTERNAL)
  0403 0004 sizesize 
  0001 0145 //to 1 location add base of section 4.
<\ sizesize <- 00040000 > // 4 bytes of payload.
  // Relocations whose target (ptogg_7) section is 4 (voxdata_5):
<0403:0004> (RELOCATION : INTERNAL)
  0403 0004 sizesize 
  0001 0148 //to 1 location add base of section 4.
<\ sizesize <- 00040000 > // 4 bytes of payload.
  // Relocations whose target (ipres_8) section is 4 (voxdata_5):
<0403:0004> (RELOCATION : INTERNAL)
  0403 0004 sizesize 
  0001 014b //to 1 location add base of section 4.
<\ sizesize <- 00040000 > // 4 bytes of payload.
  // Relocations whose target (kpres_9) section is 4 (voxdata_5):
<0403:0004> (RELOCATION : INTERNAL)
  0403 0004 sizesize 
  0001 014e //to 1 location add base of section 4.
<\ sizesize <- 00040000 > // 4 bytes of payload.
  // Relocations whose target (opres_10) section is 4 (voxdata_5):
<0403:0004> (RELOCATION : INTERNAL)
  0403 0004 sizesize 
  0001 0151 //to 1 location add base of section 4.
<\ sizesize <- 00040000 > // 4 bytes of payload.
  // Relocations whose target (lpres_11) section is 4 (voxdata_5):
<0403:0004> (RELOCATION : INTERNAL)
  0403 0004 sizesize 
  0001 0154 //to 1 location add base of section 4.
<\ sizesize <- 00040000 > // 4 bytes of payload.
  // Relocations whose target (sprin_12) section is 4 (voxdata_5):
<0403:0004> (RELOCATION : INTERNAL)
  0403 0004 sizesize 
  0001 0157 //to 1 location add base of section 4.
<\ sizesize <- 00040000 > // 4 bytes of payload.
  // Relocations whose target (atogg_13) section is 4 (voxdata_5):
<0403:0004> (RELOCATION : INTERNAL)
  0403 0004 sizesize 
  0001 015a //to 1 location add base of section 4.
<\ sizesize <- 00040000 > // 4 bytes of payload.
  // Relocations whose target (hprin_14) section is 4 (voxdata_5):
<0403:0004> (RELOCATION : INTERNAL)
  0403 0004 sizesize 
  0001 015d //to 1 location add base of section 4.
<\ sizesize <- 00040000 > // 4 bytes of payload.
  // Relocations whose target (se_15) section is 4 (voxdata_5):
<0403:0004> (RELOCATION : INTERNAL)
  0403 0004 sizesize 
  0001 0160 //to 1 location add base of section 4.
<\ sizesize <- 00040000 > // 4 bytes of payload.
  // Relocations whose target (_audioDecoder) section is 3 (voxdata_3):
<0403:0003> (RELOCATION : INTERNAL)
  0403 0003 sizesize 
  0006 0172 0195 01a2 021f 0229 030e //to 6 locations add base of section 3.
<\ sizesize <- 000e0000 > // 14 bytes of payload.
  // Relocations whose target (_running) section is 3 (voxdata_3):
<0403:0003> (RELOCATION : INTERNAL)
  0403 0003 sizesize 
  0001 0177 //to 1 location add base of section 3.
<\ sizesize <- 00040000 > // 4 bytes of payload.
  // Relocations whose target (_monitorVoltage) section is 1 (votext_1):
<0403:0001> (RELOCATION : INTERNAL)
  0403 0001 sizesize 
  0001 017d //to 1 location add base of section 1.
<\ sizesize <- 00040000 > // 4 bytes of payload.
  // Relocations whose target (_cbut) section is 3 (voxdata_3):
<0403:0003> (RELOCATION : INTERNAL)
  0403 0003 sizesize 
  0001 0186 //to 1 location add base of section 3.
<\ sizesize <- 00040000 > // 4 bytes of payload.
  // Relocations whose target (_repeatSongStatus) section is 3 (voxdata_3):
<0403:0003> (RELOCATION : INTERNAL)
  0403 0003 sizesize 
  0004 0193 01a0 020a 02f6 //to 4 locations add base of section 3.
<\ sizesize <- 000a0000 > // 10 bytes of payload.
  // Relocations whose target (_fileNum) section is 3 (voxdata_3):
<0403:0003> (RELOCATION : INTERNAL)
  0403 0003 sizesize 
  0003 01ad 01b3 030a //to 3 locations add base of section 3.
<\ sizesize <- 00080000 > // 8 bytes of payload.
  // Relocations whose target (_volume) section is 3 (voxdata_3):
<0403:0003> (RELOCATION : INTERNAL)
  0403 0003 sizesize 
  0004 01c2 01cb 01f0 02ea //to 4 locations add base of section 3.
<\ sizesize <- 000a0000 > // 10 bytes of payload.
  // Relocations whose target (divide16signed) section is 0 (divide16signed):
<0402:0000> (RELOCATION : EXTERNAL NAME 'divide16signed' CRUNCHED 'divide16signed')
  0402 0000 001e0000 
  0064 0069 0076 0069 0064 0065 0031 0036 0073 0069 0067 006e 0065 0064 0000 
<\string>

<0404:0000> (RELOCATION : EXTERNAL)
  0404 0000 sizesize 
  0002 01d2 01f7 //to 2 locations add base of section 0.
<\ sizesize <- 00060000 > // 6 bytes of payload.
  // Relocations whose target (xd_16) section is 4 (voxdata_5):
<0403:0004> (RELOCATION : INTERNAL)
  0403 0004 sizesize 
  0002 01d9 01fe //to 2 locations add base of section 4.
<\ sizesize <- 00060000 > // 6 bytes of payload.
  // Relocations whose target (_vo_printf) section is 0 (_vo_printf):
<0402:0000> (RELOCATION : EXTERNAL NAME '_vo_printf' CRUNCHED '_vo_printf')
  0402 0000 00160000 
  005f 0076 006f 005f 0070 0072 0069 006e 0074 0066 0000 
<\string>

<0404:0000> (RELOCATION : EXTERNAL)
  0404 0000 sizesize 
  000c 01da 01ff 0216 021c 0238 023e 02db 02e8 02ee 02f4 02fa 0300 //to 12 locations add base of section 0.
<\ sizesize <- 001a0000 > // 26 bytes of payload.
  // Relocations whose target (_anyButtonPressed) section is 5 (voxdata_bss_6):
<0403:0005> (RELOCATION : INTERNAL)
  0403 0005 sizesize 
  0006 01dc 0201 0245 0270 029b 02bc //to 6 locations add base of section 5.
<\ sizesize <- 000e0000 > // 14 bytes of payload.
  // Relocations whose target (_idleMode) section is 5 (voxdata_bss_6):
<0403:0005> (RELOCATION : INTERNAL)
  0403 0005 sizesize 
  0006 01df 0204 0248 0273 029e 02bf //to 6 locations add base of section 5.
<\ sizesize <- 000e0000 > // 14 bytes of payload.
  // Relocations whose target (repeato_18) section is 4 (voxdata_5):
<0403:0004> (RELOCATION : INTERNAL)
  0403 0004 sizesize 
  0001 0212 //to 1 location add base of section 4.
<\ sizesize <- 00040000 > // 4 bytes of payload.
  // Relocations whose target (repeato_17) section is 4 (voxdata_5):
<0403:0004> (RELOCATION : INTERNAL)
  0403 0004 sizesize 
  0001 0215 //to 1 location add base of section 4.
<\ sizesize <- 00040000 > // 4 bytes of payload.
  // Relocations whose target (playing_20) section is 4 (voxdata_5):
<0403:0004> (RELOCATION : INTERNAL)
  0403 0004 sizesize 
  0001 0234 //to 1 location add base of section 4.
<\ sizesize <- 00040000 > // 4 bytes of payload.
  // Relocations whose target (pausing_19) section is 4 (voxdata_5):
<0403:0004> (RELOCATION : INTERNAL)
  0403 0004 sizesize 
  0001 0237 //to 1 location add base of section 4.
<\ sizesize <- 00040000 > // 4 bytes of payload.
  // Relocations whose target (_currentMenu) section is 3 (voxdata_3):
<0403:0003> (RELOCATION : INTERNAL)
  0403 0003 sizesize 
  0004 024a 0275 02a0 02c1 //to 4 locations add base of section 3.
<\ sizesize <- 000a0000 > // 10 bytes of payload.
  // Relocations whose target (JumpTable_21) section is 4 (voxdata_5):
<0403:0004> (RELOCATION : INTERNAL)
  0403 0004 sizesize 
  0001 024f //to 1 location add base of section 4.
<\ sizesize <- 00040000 > // 4 bytes of payload.
  // Relocations whose target (_loadSongsMenu) section is 1 (votext_1):
<0403:0001> (RELOCATION : INTERNAL)
  0403 0001 sizesize 
  0001 0258 //to 1 location add base of section 1.
<\ sizesize <- 00040000 > // 4 bytes of payload.
  // Relocations whose target (_moveBoxSelection) section is 1 (votext_1):
<0403:0001> (RELOCATION : INTERNAL)
  0403 0001 sizesize 
  0006 025f 0264 0269 028a 028f 0294 //to 6 locations add base of section 1.
<\ sizesize <- 000e0000 > // 14 bytes of payload.
  // Relocations whose target (JumpTable_22) section is 4 (voxdata_5):
<0403:0004> (RELOCATION : INTERNAL)
  0403 0004 sizesize 
  0001 027a //to 1 location add base of section 4.
<\ sizesize <- 00040000 > // 4 bytes of payload.
  // Relocations whose target (_loadPlaylistsMenu) section is 1 (votext_1):
<0403:0001> (RELOCATION : INTERNAL)
  0403 0001 sizesize 
  0001 0283 //to 1 location add base of section 1.
<\ sizesize <- 00040000 > // 4 bytes of payload.
  // Relocations whose target (JumpTable_23) section is 4 (voxdata_5):
<0403:0004> (RELOCATION : INTERNAL)
  0403 0004 sizesize 
  0001 02a5 //to 1 location add base of section 4.
<\ sizesize <- 00040000 > // 4 bytes of payload.
  // Relocations whose target (_loadArtistsMenu) section is 1 (votext_1):
<0403:0001> (RELOCATION : INTERNAL)
  0403 0001 sizesize 
  0001 02ae //to 1 location add base of section 1.
<\ sizesize <- 00040000 > // 4 bytes of payload.
  // Relocations whose target (_loadMainMenu) section is 1 (votext_1):
<0403:0001> (RELOCATION : INTERNAL)
  0403 0001 sizesize 
  0004 02b0 02b4 02b6 02b8 //to 4 locations add base of section 1.
<\ sizesize <- 000a0000 > // 10 bytes of payload.
  // Relocations whose target (_loadInfoMenu) section is 1 (votext_1):
<0403:0001> (RELOCATION : INTERNAL)
  0403 0001 sizesize 
  0001 02c5 //to 1 location add base of section 1.
<\ sizesize <- 00040000 > // 4 bytes of payload.
  // Relocations whose target (_index) section is 5 (voxdata_bss_6):
<0403:0005> (RELOCATION : INTERNAL)
  0403 0005 sizesize 
  0002 02d1 02d6 //to 2 locations add base of section 5.
<\ sizesize <- 00060000 > // 6 bytes of payload.
  // Relocations whose target (_retrieveSongLocation) section is 1 (votext_1):
<0403:0001> (RELOCATION : INTERNAL)
  0403 0001 sizesize 
  0001 02d2 //to 1 location add base of section 1.
<\ sizesize <- 00040000 > // 4 bytes of payload.
  // Relocations whose target (_path) section is 5 (voxdata_bss_6):
<0403:0005> (RELOCATION : INTERNAL)
  0403 0005 sizesize 
  0001 02d4 //to 1 location add base of section 5.
<\ sizesize <- 00040000 > // 4 bytes of payload.
  // Relocations whose target (si_24) section is 4 (voxdata_5):
<0403:0004> (RELOCATION : INTERNAL)
  0403 0004 sizesize 
  0001 02da //to 1 location add base of section 4.
<\ sizesize <- 00040000 > // 4 bytes of payload.
  // Relocations whose target (_charging) section is 3 (voxdata_3):
<0403:0003> (RELOCATION : INTERNAL)
  0403 0003 sizesize 
  0001 02e2 //to 1 location add base of section 3.
<\ sizesize <- 00040000 > // 4 bytes of payload.
  // Relocations whose target (charging_25) section is 4 (voxdata_5):
<0403:0004> (RELOCATION : INTERNAL)
  0403 0004 sizesize 
  0001 02e7 //to 1 location add base of section 4.
<\ sizesize <- 00040000 > // 4 bytes of payload.
  // Relocations whose target (volume_26) section is 4 (voxdata_5):
<0403:0004> (RELOCATION : INTERNAL)
  0403 0004 sizesize 
  0001 02ed //to 1 location add base of section 4.
<\ sizesize <- 00040000 > // 4 bytes of payload.
  // Relocations whose target (_shuffle) section is 3 (voxdata_3):
<0403:0003> (RELOCATION : INTERNAL)
  0403 0003 sizesize 
  0001 02f0 //to 1 location add base of section 3.
<\ sizesize <- 00040000 > // 4 bytes of payload.
  // Relocations whose target (shuffling_27) section is 4 (voxdata_5):
<0403:0004> (RELOCATION : INTERNAL)
  0403 0004 sizesize 
  0001 02f3 //to 1 location add base of section 4.
<\ sizesize <- 00040000 > // 4 bytes of payload.
  // Relocations whose target (repeating_28) section is 4 (voxdata_5):
<0403:0004> (RELOCATION : INTERNAL)
  0403 0004 sizesize 
  0001 02f9 //to 1 location add base of section 4.
<\ sizesize <- 00040000 > // 4 bytes of payload.
  // Relocations whose target (_mute) section is 3 (voxdata_3):
<0403:0003> (RELOCATION : INTERNAL)
  0403 0003 sizesize 
  0001 02fc //to 1 location add base of section 3.
<\ sizesize <- 00040000 > // 4 bytes of payload.
  // Relocations whose target (mute_29) section is 4 (voxdata_5):
<0403:0004> (RELOCATION : INTERNAL)
  0403 0004 sizesize 
  0001 02ff //to 1 location add base of section 4.
<\ sizesize <- 00040000 > // 4 bytes of payload.
  // Relocations whose target (_isdigit) section is 0 (_isdigit):
<0402:0000> (RELOCATION : EXTERNAL NAME '_isdigit' CRUNCHED '_isdigit')
  0402 0000 00120000 
  005f 0069 0073 0064 0069 0067 0069 0074 0000 
<\string>

<0404:0000> (RELOCATION : EXTERNAL)
  0404 0000 sizesize 
  0001 0305 //to 1 location add base of section 0.
<\ sizesize <- 00040000 > // 4 bytes of payload.
  // Relocations whose target (_auxChoice) section is 3 (voxdata_3):
<0403:0003> (RELOCATION : INTERNAL)
  0403 0003 sizesize 
  0001 0316 //to 1 location add base of section 3.
<\ sizesize <- 00040000 > // 4 bytes of payload.
  // Relocations whose target (auxchoice_30) section is 4 (voxdata_5):
<0403:0004> (RELOCATION : INTERNAL)
  0403 0004 sizesize 
  0001 0320 //to 1 location add base of section 4.
<\ sizesize <- 00040000 > // 4 bytes of payload.
  // Relocations whose target (auxchoice_31) section is 4 (voxdata_5):
<0403:0004> (RELOCATION : INTERNAL)
  0403 0004 sizesize 
  0001 0324 //to 1 location add base of section 4.
<\ sizesize <- 00040000 > // 4 bytes of payload.

<0401:0003> (RELOCATION : SECTION NUMBER TO POKE TO)
  0401 0003 sizesize 
  // Relocations for section 3 follow.
<\ sizesize <- 00000000 > // 0 bytes of payload.
  // Relocations whose target (String_52) section is 3 (voxdata_3):
<0403:0003> (RELOCATION : INTERNAL)
  0403 0003 sizesize 
  0001 0084 //to 1 location add base of section 3.
<\ sizesize <- 00040000 > // 4 bytes of payload.
  // Relocations whose target (_monitorVoltage) section is 1 (votext_1):
<0403:0001> (RELOCATION : INTERNAL)
  0403 0001 sizesize 
  0001 0095 //to 1 location add base of section 1.
<\ sizesize <- 00040000 > // 4 bytes of payload.
  // Relocations whose target (String_53) section is 3 (voxdata_3):
<0403:0003> (RELOCATION : INTERNAL)
  0403 0003 sizesize 
  0001 009d //to 1 location add base of section 3.
<\ sizesize <- 00040000 > // 4 bytes of payload.
  // Relocations whose target (String_54) section is 3 (voxdata_3):
<0403:0003> (RELOCATION : INTERNAL)
  0403 0003 sizesize 
  0001 00a0 //to 1 location add base of section 3.
<\ sizesize <- 00040000 > // 4 bytes of payload.
  // Relocations whose target (_navigateMenus) section is 1 (votext_1):
<0403:0001> (RELOCATION : INTERNAL)
  0403 0001 sizesize 
  0005 0670 0671 0672 0673 0674 //to 5 locations add base of section 1.
<\ sizesize <- 000c0000 > // 12 bytes of payload.
  // Relocations whose target (_DevByteBusIdentify) section is 0 (votext):
<0403:0000> (RELOCATION : INTERNAL)
  0403 0000 sizesize 
  0001 0705 //to 1 location add base of section 0.
<\ sizesize <- 00040000 > // 4 bytes of payload.
  // Relocations whose target (_DevByteBusCreate) section is 1 (votext_1):
<0403:0001> (RELOCATION : INTERNAL)
  0403 0001 sizesize 
  0001 0706 //to 1 location add base of section 1.
<\ sizesize <- 00040000 > // 4 bytes of payload.
  // Relocations whose target (_DevByteBusDelete) section is 0 (votext):
<0403:0000> (RELOCATION : INTERNAL)
  0403 0000 sizesize 
  0001 0707 //to 1 location add base of section 0.
<\ sizesize <- 00040000 > // 4 bytes of payload.
  // Relocations whose target (_DevByteBusIoctl) section is 2 (votext_2):
<0403:0002> (RELOCATION : INTERNAL)
  0403 0002 sizesize 
  0005 0708 0732 0733 0734 0735 //to 5 locations add base of section 2.
<\ sizesize <- 000c0000 > // 12 bytes of payload.
  // Relocations whose target (_DevByteBusRead) section is 1 (votext_1):
<0403:0001> (RELOCATION : INTERNAL)
  0403 0001 sizesize 
  0001 0709 //to 1 location add base of section 1.
<\ sizesize <- 00040000 > // 4 bytes of payload.
  // Relocations whose target (_DevByteBusWrite) section is 2 (votext_2):
<0403:0002> (RELOCATION : INTERNAL)
  0403 0002 sizesize 
  0001 070a //to 1 location add base of section 2.
<\ sizesize <- 00040000 > // 4 bytes of payload.

<0401:0004> (RELOCATION : SECTION NUMBER TO POKE TO)
  0401 0004 sizesize 
  // Relocations for section 4 follow.
<\ sizesize <- 00000000 > // 0 bytes of payload.
  // Relocations whose target (_checkUART) section is 2 (votext_2):
<0403:0002> (RELOCATION : INTERNAL)
  0403 0002 sizesize 
  000f 0230 0231 0232 0233 0234 0235 0236 0237 0238 0239 023a 023b 023c 023d 023e //to 15 locations add base of section 2.
<\ sizesize <- 00200000 > // 32 bytes of payload.

<0a01:8f05> (CRCCHECK)
  0a01 8f05 sizesize 
  
<\ sizesize <- 00000000 > // 0 bytes of payload.
//From Emulation-Debug\main.o: 
<0800:0000> (SYMBOL '_main') (section=0, offset=0 (0x0000))
  0800 0000 000c0000 
  005f 006d 0061 0069 006e 0000 
<\string>
//From Emulation-Debug\main.o: 
<0800:020a> (SYMBOL '_randLFSR') (section=0, offset=522 (0x020a))
  0800 020a 00140000 
  005f 0072 0061 006e 0064 004c 0046 0053 0052 0000 
<\string>
//From Emulation-Debug\main.o: 
<0800:021b> (SYMBOL '_PlayerThread') (section=0, offset=539 (0x021b))
  0800 021b 001c0000 
  005f 0050 006c 0061 0079 0065 0072 0054 0068 0072 0065 0061 0064 0000 
<\string>
//From Emulation-Debug\main.o: 
<0800:0230> (SYMBOL '_PlayFile') (section=0, offset=560 (0x0230))
  0800 0230 00140000 
  005f 0050 006c 0061 0079 0046 0069 006c 0065 0000 
<\string>
//From Emulation-Debug\main.o: 
<0800:0262> (SYMBOL '_decoderTaskRunning') (section=0, offset=610 (0x0262))
  0800 0262 00280000 
  005f 0064 0065 0063 006f 0064 0065 0072 0054 0061 0073 006b 0052 0075 006e 006e 0069 006e 0067 0000 
<\string>
//From Emulation-Debug\main.o: 
<0800:0281> (SYMBOL '_checkFlags') (section=0, offset=641 (0x0281))
  0800 0281 00180000 
  005f 0063 0068 0065 0063 006b 0046 006c 0061 0067 0073 0000 
<\string>
//From Emulation-Debug\main.o: 
<0800:02a8> (SYMBOL '_scanDirectoryForMP3') (section=0, offset=680 (0x02a8))
  0800 02a8 002a0000 
  005f 0073 0063 0061 006e 0044 0069 0072 0065 0063 0074 006f 0072 0079 0046 006f 0072 004d 0050 0033 0000 
<\string>
//From Emulation-Debug\main.o: 
<0800:035e> (SYMBOL '_scanDirectoryForDirectory') (section=0, offset=862 (0x035e))
  0800 035e 00360000 
  005f 0073 0063 0061 006e 0044 0069 0072 0065 0063 0074 006f 0072 0079 0046 006f 0072 0044 0069 0072 0065 0063 0074 006f 0072 0079 0000 
<\string>
//From Emulation-Debug\lcd-ili9341.o: 
<0800:0527> (SYMBOL '_LcdInit') (section=0, offset=1319 (0x0527))
  0800 0527 00120000 
  005f 004c 0063 0064 0049 006e 0069 0074 0000 
<\string>
//From Emulation-Debug\UI.o: 
<0800:07d7> (SYMBOL '_loadScanningMenu') (section=0, offset=2007 (0x07d7))
  0800 07d7 00240000 
  005f 006c 006f 0061 0064 0053 0063 0061 006e 006e 0069 006e 0067 004d 0065 006e 0075 0000 
<\string>
//From Emulation-Debug\taskandstack.o: 
<0800:057e> (SYMBOL '_CreateTaskAndStack') (section=0, offset=1406 (0x057e))
  0800 057e 00280000 
  005f 0043 0072 0065 0061 0074 0065 0054 0061 0073 006b 0041 006e 0064 0053 0074 0061 0063 006b 0000 
<\string>
//From Emulation-Debug\buttons.o: 
<0800:0691> (SYMBOL '_playPause') (section=0, offset=1681 (0x0691))
  0800 0691 00160000 
  005f 0070 006c 0061 0079 0050 0061 0075 0073 0065 0000 
<\string>
//From Emulation-Debug\buttons.o: 
<0800:05bf> (SYMBOL '_nextSong') (section=0, offset=1471 (0x05bf))
  0800 05bf 00140000 
  005f 006e 0065 0078 0074 0053 006f 006e 0067 0000 
<\string>
//From Emulation-Debug\buttons.o: 
<0800:06e6> (SYMBOL '_volumeUp') (section=0, offset=1766 (0x06e6))
  0800 06e6 00140000 
  005f 0076 006f 006c 0075 006d 0065 0055 0070 0000 
<\string>
//From Emulation-Debug\buttons.o: 
<0800:0733> (SYMBOL '_volumeDown') (section=0, offset=1843 (0x0733))
  0800 0733 00180000 
  005f 0076 006f 006c 0075 006d 0065 0044 006f 0077 006e 0000 
<\string>
//From Emulation-Debug\buttons.o: 
<0800:0781> (SYMBOL '_volumeMute') (section=0, offset=1921 (0x0781))
  0800 0781 00180000 
  005f 0076 006f 006c 0075 006d 0065 004d 0075 0074 0065 0000 
<\string>
//From Emulation-Debug\buttons.o: 
<0800:05ff> (SYMBOL '_repeatSong') (section=0, offset=1535 (0x05ff))
  0800 05ff 00180000 
  005f 0072 0065 0070 0065 0061 0074 0053 006f 006e 0067 0000 
<\string>
//From Emulation-Debug\buttons.o: 
<0800:0640> (SYMBOL '_shuffleSong') (section=0, offset=1600 (0x0640))
  0800 0640 001a0000 
  005f 0073 0068 0075 0066 0066 006c 0065 0053 006f 006e 0067 0000 
<\string>
//From Emulation-Debug\lcd-ili9341.o: 
<0800:03bc> (SYMBOL '_TFTWriteVector') (section=0, offset=956 (0x03bc))
  0800 03bc 00200000 
  005f 0054 0046 0054 0057 0072 0069 0074 0065 0056 0065 0063 0074 006f 0072 0000 
<\string>
//From Emulation-Debug\lcd-ili9341.o: 
<0800:03ff> (SYMBOL '_MyLcdFilledRectangle') (section=0, offset=1023 (0x03ff))
  0800 03ff 002c0000 
  005f 004d 0079 004c 0063 0064 0046 0069 006c 006c 0065 0064 0052 0065 0063 0074 0061 006e 0067 006c 0065 0000 
<\string>
//From Emulation-Debug\lcd-ili9341.o: 
<0800:04af> (SYMBOL '_MyLcdTextOutXY') (section=0, offset=1199 (0x04af))
  0800 04af 00200000 
  005f 004d 0079 004c 0063 0064 0054 0065 0078 0074 004f 0075 0074 0058 0059 0000 
<\string>
//From Emulation-Debug\lcd-ili9341.o: 
<0800:0527> (SYMBOL '_LcdInit') (section=0, offset=1319 (0x0527))
  0800 0527 00120000 
  005f 004c 0063 0064 0049 006e 0069 0074 0000 
<\string>
//From Emulation-Debug\taskandstack.o: 
<0800:057e> (SYMBOL '_CreateTaskAndStack') (section=0, offset=1406 (0x057e))
  0800 057e 00280000 
  005f 0043 0072 0065 0061 0074 0065 0054 0061 0073 006b 0041 006e 0064 0053 0074 0061 0063 006b 0000 
<\string>
//From Emulation-Debug\buttons.o: 
<0800:05bf> (SYMBOL '_nextSong') (section=0, offset=1471 (0x05bf))
  0800 05bf 00140000 
  005f 006e 0065 0078 0074 0053 006f 006e 0067 0000 
<\string>
//From Emulation-Debug\buttons.o: 
<0800:05ff> (SYMBOL '_repeatSong') (section=0, offset=1535 (0x05ff))
  0800 05ff 00180000 
  005f 0072 0065 0070 0065 0061 0074 0053 006f 006e 0067 0000 
<\string>
//From Emulation-Debug\buttons.o: 
<0800:0640> (SYMBOL '_shuffleSong') (section=0, offset=1600 (0x0640))
  0800 0640 001a0000 
  005f 0073 0068 0075 0066 0066 006c 0065 0053 006f 006e 0067 0000 
<\string>
//From Emulation-Debug\buttons.o: 
<0800:0691> (SYMBOL '_playPause') (section=0, offset=1681 (0x0691))
  0800 0691 00160000 
  005f 0070 006c 0061 0079 0050 0061 0075 0073 0065 0000 
<\string>
//From Emulation-Debug\buttons.o: 
<0800:06e6> (SYMBOL '_volumeUp') (section=0, offset=1766 (0x06e6))
  0800 06e6 00140000 
  005f 0076 006f 006c 0075 006d 0065 0055 0070 0000 
<\string>
//From Emulation-Debug\buttons.o: 
<0800:0733> (SYMBOL '_volumeDown') (section=0, offset=1843 (0x0733))
  0800 0733 00180000 
  005f 0076 006f 006c 0075 006d 0065 0044 006f 0077 006e 0000 
<\string>
//From Emulation-Debug\buttons.o: 
<0800:0781> (SYMBOL '_volumeMute') (section=0, offset=1921 (0x0781))
  0800 0781 00180000 
  005f 0076 006f 006c 0075 006d 0065 004d 0075 0074 0065 0000 
<\string>
//From Emulation-Debug\UI.o: 
<0800:07d7> (SYMBOL '_loadScanningMenu') (section=0, offset=2007 (0x07d7))
  0800 07d7 00240000 
  005f 006c 006f 0061 0064 0053 0063 0061 006e 006e 0069 006e 0067 004d 0065 006e 0075 0000 
<\string>
//From Emulation-Debug\devByteBus.o: 
<0800:07f6> (SYMBOL '_DevByteBusIdentify') (section=0, offset=2038 (0x07f6))
  0800 07f6 00280000 
  005f 0044 0065 0076 0042 0079 0074 0065 0042 0075 0073 0049 0064 0065 006e 0074 0069 0066 0079 0000 
<\string>
//From Emulation-Debug\devByteBus.o: 
<0800:07f8> (SYMBOL '_DevByteBusDelete') (section=0, offset=2040 (0x07f8))
  0800 07f8 00240000 
  005f 0044 0065 0076 0042 0079 0074 0065 0042 0075 0073 0044 0065 006c 0065 0074 0065 0000 
<\string>
//From Emulation-Debug\UI.o: 
<0801:03c5> (SYMBOL '_loadNoDriveMenu') (section=1, offset=965 (0x03c5))
  0801 03c5 00220000 
  005f 006c 006f 0061 0064 004e 006f 0044 0072 0069 0076 0065 004d 0065 006e 0075 0000 
<\string>
//From Emulation-Debug\UI.o: 
<0801:0256> (SYMBOL '_loadCriticalErrorMenu') (section=1, offset=598 (0x0256))
  0801 0256 002e0000 
  005f 006c 006f 0061 0064 0043 0072 0069 0074 0069 0063 0061 006c 0045 0072 0072 006f 0072 004d 0065 006e 0075 0000 
<\string>
//From C:\Program Files (x86)\VSIDE\libvs1005h_vsos3/libc.a:_strcmp.o: 
<0801:0790> (SYMBOL '_strcmp') (section=1, offset=1936 (0x0790))
  0801 0790 00100000 
  005f 0073 0074 0072 0063 006d 0070 0000 
<\string>
//From Emulation-Debug\battery.o: 
<0801:06ec> (SYMBOL '_cyclicVoltage') (section=1, offset=1772 (0x06ec))
  0801 06ec 001e0000 
  005f 0063 0079 0063 006c 0069 0063 0056 006f 006c 0074 0061 0067 0065 0000 
<\string>
//From Emulation-Debug\battery.o: 
<0801:06da> (SYMBOL '_idleCheck') (section=1, offset=1754 (0x06da))
  0801 06da 00160000 
  005f 0069 0064 006c 0065 0043 0068 0065 0063 006b 0000 
<\string>
//From Emulation-Debug\UI.o: 
<0801:0092> (SYMBOL '_loadMainMenu') (section=1, offset=146 (0x0092))
  0801 0092 001c0000 
  005f 006c 006f 0061 0064 004d 0061 0069 006e 004d 0065 006e 0075 0000 
<\string>
//From Emulation-Debug\battery.o: 
<0801:05ee> (SYMBOL '_monitorVoltage') (section=1, offset=1518 (0x05ee))
  0801 05ee 00200000 
  005f 006d 006f 006e 0069 0074 006f 0072 0056 006f 006c 0074 0061 0067 0065 0000 
<\string>
//From Emulation-Debug\battery.o: 
<0801:05ba> (SYMBOL '_powerSavingDelay') (section=1, offset=1466 (0x05ba))
  0801 05ba 00240000 
  005f 0070 006f 0077 0065 0072 0053 0061 0076 0069 006e 0067 0044 0065 006c 0061 0079 0000 
<\string>
//From Emulation-Debug\UI.o: 
<0801:0400> (SYMBOL '_navigateMenus') (section=1, offset=1024 (0x0400))
  0801 0400 001e0000 
  005f 006e 0061 0076 0069 0067 0061 0074 0065 004d 0065 006e 0075 0073 0000 
<\string>
//From Emulation-Debug\buttons.o: 
<0801:0037> (SYMBOL '_previousSong') (section=1, offset=55 (0x0037))
  0801 0037 001c0000 
  005f 0070 0072 0065 0076 0069 006f 0075 0073 0053 006f 006e 0067 0000 
<\string>
//From Emulation-Debug\buttons.o: 
<0801:0000> (SYMBOL '_stopSong') (section=1, offset=0 (0x0000))
  0801 0000 00140000 
  005f 0073 0074 006f 0070 0053 006f 006e 0067 0000 
<\string>
//From Emulation-Debug\devByteBus.o: 
<0801:06ff> (SYMBOL '_DevByteBusCreate') (section=1, offset=1791 (0x06ff))
  0801 06ff 00240000 
  005f 0044 0065 0076 0042 0079 0074 0065 0042 0075 0073 0043 0072 0065 0061 0074 0065 0000 
<\string>
//From Emulation-Debug\buttons.o: 
<0801:0000> (SYMBOL '_stopSong') (section=1, offset=0 (0x0000))
  0801 0000 00140000 
  005f 0073 0074 006f 0070 0053 006f 006e 0067 0000 
<\string>
//From Emulation-Debug\buttons.o: 
<0801:0037> (SYMBOL '_previousSong') (section=1, offset=55 (0x0037))
  0801 0037 001c0000 
  005f 0070 0072 0065 0076 0069 006f 0075 0073 0053 006f 006e 0067 0000 
<\string>
//From Emulation-Debug\UI.o: 
<0801:0092> (SYMBOL '_loadMainMenu') (section=1, offset=146 (0x0092))
  0801 0092 001c0000 
  005f 006c 006f 0061 0064 004d 0061 0069 006e 004d 0065 006e 0075 0000 
<\string>
//From Emulation-Debug\UI.o: 
<0801:00ce> (SYMBOL '_drawCommonMenuItems') (section=1, offset=206 (0x00ce))
  0801 00ce 002a0000 
  005f 0064 0072 0061 0077 0043 006f 006d 006d 006f 006e 004d 0065 006e 0075 0049 0074 0065 006d 0073 0000 
<\string>
//From Emulation-Debug\UI.o: 
<0801:0136> (SYMBOL '_drawMenuListOptions') (section=1, offset=310 (0x0136))
  0801 0136 002a0000 
  005f 0064 0072 0061 0077 004d 0065 006e 0075 004c 0069 0073 0074 004f 0070 0074 0069 006f 006e 0073 0000 
<\string>
//From Emulation-Debug\UI.o: 
<0801:01d2> (SYMBOL '_loadArtistsMenu') (section=1, offset=466 (0x01d2))
  0801 01d2 00220000 
  005f 006c 006f 0061 0064 0041 0072 0074 0069 0073 0074 0073 004d 0065 006e 0075 0000 
<\string>
//From Emulation-Debug\UI.o: 
<0801:01fe> (SYMBOL '_loadPlaylistsMenu') (section=1, offset=510 (0x01fe))
  0801 01fe 00260000 
  005f 006c 006f 0061 0064 0050 006c 0061 0079 006c 0069 0073 0074 0073 004d 0065 006e 0075 0000 
<\string>
//From Emulation-Debug\UI.o: 
<0801:022a> (SYMBOL '_loadSongsMenu') (section=1, offset=554 (0x022a))
  0801 022a 001e0000 
  005f 006c 006f 0061 0064 0053 006f 006e 0067 0073 004d 0065 006e 0075 0000 
<\string>
//From Emulation-Debug\UI.o: 
<0801:0256> (SYMBOL '_loadCriticalErrorMenu') (section=1, offset=598 (0x0256))
  0801 0256 002e0000 
  005f 006c 006f 0061 0064 0043 0072 0069 0074 0069 0063 0061 006c 0045 0072 0072 006f 0072 004d 0065 006e 0075 0000 
<\string>
//From Emulation-Debug\UI.o: 
<0801:0284> (SYMBOL '_loadInfoMenu') (section=1, offset=644 (0x0284))
  0801 0284 001c0000 
  005f 006c 006f 0061 0064 0049 006e 0066 006f 004d 0065 006e 0075 0000 
<\string>
//From Emulation-Debug\UI.o: 
<0801:02b6> (SYMBOL '_moveBoxSelection') (section=1, offset=694 (0x02b6))
  0801 02b6 00240000 
  005f 006d 006f 0076 0065 0042 006f 0078 0053 0065 006c 0065 0063 0074 0069 006f 006e 0000 
<\string>
//From Emulation-Debug\UI.o: 
<0801:0361> (SYMBOL '_retrieveSongLocation') (section=1, offset=865 (0x0361))
  0801 0361 002c0000 
  005f 0072 0065 0074 0072 0069 0065 0076 0065 0053 006f 006e 0067 004c 006f 0063 0061 0074 0069 006f 006e 0000 
<\string>
//From Emulation-Debug\UI.o: 
<0801:03c5> (SYMBOL '_loadNoDriveMenu') (section=1, offset=965 (0x03c5))
  0801 03c5 00220000 
  005f 006c 006f 0061 0064 004e 006f 0044 0072 0069 0076 0065 004d 0065 006e 0075 0000 
<\string>
//From Emulation-Debug\UI.o: 
<0801:0400> (SYMBOL '_navigateMenus') (section=1, offset=1024 (0x0400))
  0801 0400 001e0000 
  005f 006e 0061 0076 0069 0067 0061 0074 0065 004d 0065 006e 0075 0073 0000 
<\string>
//From Emulation-Debug\battery.o: 
<0801:05ee> (SYMBOL '_monitorVoltage') (section=1, offset=1518 (0x05ee))
  0801 05ee 00200000 
  005f 006d 006f 006e 0069 0074 006f 0072 0056 006f 006c 0074 0061 0067 0065 0000 
<\string>
//From C:\Program Files (x86)\VSIDE\libvs1005h_vsos3/libc.a:_strtok.o: 
<0801:079b> (SYMBOL '_strtok') (section=1, offset=1947 (0x079b))
  0801 079b 00100000 
  005f 0073 0074 0072 0074 006f 006b 0000 
<\string>
//From Emulation-Debug\battery.o: 
<0801:05ba> (SYMBOL '_powerSavingDelay') (section=1, offset=1466 (0x05ba))
  0801 05ba 00240000 
  005f 0070 006f 0077 0065 0072 0053 0061 0076 0069 006e 0067 0044 0065 006c 0061 0079 0000 
<\string>
//From Emulation-Debug\battery.o: 
<0801:05de> (SYMBOL '_GetSarValue') (section=1, offset=1502 (0x05de))
  0801 05de 001a0000 
  005f 0047 0065 0074 0053 0061 0072 0056 0061 006c 0075 0065 0000 
<\string>
//From Emulation-Debug\battery.o: 
<0801:05ee> (SYMBOL '_monitorVoltage') (section=1, offset=1518 (0x05ee))
  0801 05ee 00200000 
  005f 006d 006f 006e 0069 0074 006f 0072 0056 006f 006c 0074 0061 0067 0065 0000 
<\string>
//From Emulation-Debug\battery.o: 
<0801:06da> (SYMBOL '_idleCheck') (section=1, offset=1754 (0x06da))
  0801 06da 00160000 
  005f 0069 0064 006c 0065 0043 0068 0065 0063 006b 0000 
<\string>
//From Emulation-Debug\battery.o: 
<0801:06ec> (SYMBOL '_cyclicVoltage') (section=1, offset=1772 (0x06ec))
  0801 06ec 001e0000 
  005f 0063 0079 0063 006c 0069 0063 0056 006f 006c 0074 0061 0067 0065 0000 
<\string>
//From C:\Program Files (x86)\VSIDE\libvs1005h_vsos3/libc.a:_df_gt.o: 
<0801:07c5> (SYMBOL 'df_gt') (section=1, offset=1989 (0x07c5))
  0801 07c5 000c0000 
  0064 0066 005f 0067 0074 0000 
<\string>
//From C:\Program Files (x86)\VSIDE\libvs1005h_vsos3/libc.a:_df_eq.o: 
<0801:07e1> (SYMBOL 'df_eq') (section=1, offset=2017 (0x07e1))
  0801 07e1 000c0000 
  0064 0066 005f 0065 0071 0000 
<\string>
//From Emulation-Debug\devByteBus.o: 
<0801:06ff> (SYMBOL '_DevByteBusCreate') (section=1, offset=1791 (0x06ff))
  0801 06ff 00240000 
  005f 0044 0065 0076 0042 0079 0074 0065 0042 0075 0073 0043 0072 0065 0061 0074 0065 0000 
<\string>
//From Emulation-Debug\devByteBus.o: 
<0801:0747> (SYMBOL '_DevByteBusRead') (section=1, offset=1863 (0x0747))
  0801 0747 00200000 
  005f 0044 0065 0076 0042 0079 0074 0065 0042 0075 0073 0052 0065 0061 0064 0000 
<\string>
//From C:\Program Files (x86)\VSIDE\libvs1005h_vsos3/libc.a:_strcmp.o: 
<0801:0790> (SYMBOL '_strcmp') (section=1, offset=1936 (0x0790))
  0801 0790 00100000 
  005f 0073 0074 0072 0063 006d 0070 0000 
<\string>
//From C:\Program Files (x86)\VSIDE\libvs1005h_vsos3/libc.a:_strcmp.o: 
<0801:0793> (SYMBOL '_strcmp@0') (section=1, offset=1939 (0x0793))
  0801 0793 00140000 
  005f 0073 0074 0072 0063 006d 0070 0040 0030 0000 
<\string>
//From C:\Program Files (x86)\VSIDE\libvs1005h_vsos3/libc.a:_strcmp.o: 
<0801:0799> (SYMBOL '_strcmp@1') (section=1, offset=1945 (0x0799))
  0801 0799 00140000 
  005f 0073 0074 0072 0063 006d 0070 0040 0031 0000 
<\string>
//From C:\Program Files (x86)\VSIDE\libvs1005h_vsos3/libc.a:_strtok.o: 
<0801:07a5> (SYMBOL 'tok_next') (section=1, offset=1957 (0x07a5))
  0801 07a5 00120000 
  0074 006f 006b 005f 006e 0065 0078 0074 0000 
<\string>
//From C:\Program Files (x86)\VSIDE\libvs1005h_vsos3/libc.a:_strtok.o: 
<0801:07a9> (SYMBOL 'tok_next2') (section=1, offset=1961 (0x07a9))
  0801 07a9 00140000 
  0074 006f 006b 005f 006e 0065 0078 0074 0032 0000 
<\string>
//From C:\Program Files (x86)\VSIDE\libvs1005h_vsos3/libc.a:_strtok.o: 
<0801:07b3> (SYMBOL 'tok_next3') (section=1, offset=1971 (0x07b3))
  0801 07b3 00140000 
  0074 006f 006b 005f 006e 0065 0078 0074 0033 0000 
<\string>
//From C:\Program Files (x86)\VSIDE\libvs1005h_vsos3/libc.a:_strtok.o: 
<0801:07b7> (SYMBOL 'tok_next4') (section=1, offset=1975 (0x07b7))
  0801 07b7 00140000 
  0074 006f 006b 005f 006e 0065 0078 0074 0034 0000 
<\string>
//From C:\Program Files (x86)\VSIDE\libvs1005h_vsos3/libc.a:_strtok.o: 
<0801:07c0> (SYMBOL 'tok_done') (section=1, offset=1984 (0x07c0))
  0801 07c0 00120000 
  0074 006f 006b 005f 0064 006f 006e 0065 0000 
<\string>
//From C:\Program Files (x86)\VSIDE\libvs1005h_vsos3/libc.a:_strtok.o: 
<0801:079b> (SYMBOL '_strtok') (section=1, offset=1947 (0x079b))
  0801 079b 00100000 
  005f 0073 0074 0072 0074 006f 006b 0000 
<\string>
//From C:\Program Files (x86)\VSIDE\libvs1005h_vsos3/libc.a:_strtok.o: 
<0801:07a5> (SYMBOL 'tok_1') (section=1, offset=1957 (0x07a5))
  0801 07a5 000c0000 
  0074 006f 006b 005f 0031 0000 
<\string>
//From C:\Program Files (x86)\VSIDE\libvs1005h_vsos3/libc.a:_df_gt.o: 
<0801:07c5> (SYMBOL 'df_gt') (section=1, offset=1989 (0x07c5))
  0801 07c5 000c0000 
  0064 0066 005f 0067 0074 0000 
<\string>
//From C:\Program Files (x86)\VSIDE\libvs1005h_vsos3/libc.a:_df_gt.o: 
<0801:07d1> (SYMBOL 'gt_sexp') (section=1, offset=2001 (0x07d1))
  0801 07d1 00100000 
  0067 0074 005f 0073 0065 0078 0070 0000 
<\string>
//From C:\Program Files (x86)\VSIDE\libvs1005h_vsos3/libc.a:_df_gt.o: 
<0801:07de> (SYMBOL 'gt_sne') (section=1, offset=2014 (0x07de))
  0801 07de 000e0000 
  0067 0074 005f 0073 006e 0065 0000 
<\string>
//From C:\Program Files (x86)\VSIDE\libvs1005h_vsos3/libc.a:_df_gt.o: 
<0801:07d8> (SYMBOL 'gt_schk') (section=1, offset=2008 (0x07d8))
  0801 07d8 00100000 
  0067 0074 005f 0073 0063 0068 006b 0000 
<\string>
//From C:\Program Files (x86)\VSIDE\libvs1005h_vsos3/libc.a:_df_eq.o: 
<0801:07e1> (SYMBOL 'df_eq') (section=1, offset=2017 (0x07e1))
  0801 07e1 000c0000 
  0064 0066 005f 0065 0071 0000 
<\string>
//From Emulation-Debug\UART.o: 
<0802:011c> (SYMBOL '_checkUART') (section=2, offset=284 (0x011c))
  0802 011c 00160000 
  005f 0063 0068 0065 0063 006b 0055 0041 0052 0054 0000 
<\string>
//From Emulation-Debug\devByteBus.o: 
<0802:0000> (SYMBOL '_DevByteBusWrite') (section=2, offset=0 (0x0000))
  0802 0000 00220000 
  005f 0044 0065 0076 0042 0079 0074 0065 0042 0075 0073 0057 0072 0069 0074 0065 0000 
<\string>
//From Emulation-Debug\devByteBus.o: 
<0802:0089> (SYMBOL '_DevByteBusIoctl') (section=2, offset=137 (0x0089))
  0802 0089 00220000 
  005f 0044 0065 0076 0042 0079 0074 0065 0042 0075 0073 0049 006f 0063 0074 006c 0000 
<\string>
//From Emulation-Debug\UART.o: 
<0802:011c> (SYMBOL '_checkUART') (section=2, offset=284 (0x011c))
  0802 011c 00160000 
  005f 0063 0068 0065 0063 006b 0055 0041 0052 0054 0000 
<\string>
//From C:\Program Files (x86)\VSIDE\libvs1005h_vsos3/libvsos03.a:/452: 
<0802:032b> (SYMBOL '_vo_puts') (section=2, offset=811 (0x032b))
  0802 032b 00120000 
  005f 0076 006f 005f 0070 0075 0074 0073 0000 
<\string>
//From C:\Program Files (x86)\VSIDE\libvs1005h_vsos3/libvsos03.a:/452: 
<0802:032b> (SYMBOL '_vo_puts') (section=2, offset=811 (0x032b))
  0802 032b 00120000 
  005f 0076 006f 005f 0070 0075 0074 0073 0000 
<\string>
//From Emulation-Debug\main.o: 
<0803:0000> (SYMBOL '_fileName') (section=3, offset=0 (0x0000))
  0803 0000 00140000 
  005f 0066 0069 006c 0065 004e 0061 006d 0065 0000 
<\string>
//From Emulation-Debug\main.o: 
<0803:0080> (SYMBOL '_fp') (section=3, offset=128 (0x0080))
  0803 0080 00080000 
  005f 0066 0070 0000 
<\string>
//From Emulation-Debug\main.o: 
<0803:0081> (SYMBOL '_openedFile') (section=3, offset=129 (0x0081))
  0803 0081 00180000 
  005f 006f 0070 0065 006e 0065 0064 0046 0069 006c 0065 0000 
<\string>
//From Emulation-Debug\main.o: 
<0803:0082> (SYMBOL '_decoderLibrary') (section=3, offset=130 (0x0082))
  0803 0082 00200000 
  005f 0064 0065 0063 006f 0064 0065 0072 004c 0069 0062 0072 0061 0072 0079 0000 
<\string>
//From Emulation-Debug\main.o: 
<0803:0083> (SYMBOL '_audioDecoder') (section=3, offset=131 (0x0083))
  0803 0083 001c0000 
  005f 0061 0075 0064 0069 006f 0044 0065 0063 006f 0064 0065 0072 0000 
<\string>
//From Emulation-Debug\main.o: 
<0803:0084> (SYMBOL '_errorString') (section=3, offset=132 (0x0084))
  0803 0084 001a0000 
  005f 0065 0072 0072 006f 0072 0053 0074 0072 0069 006e 0067 0000 
<\string>
//From Emulation-Debug\main.o: 
<0803:0085> (SYMBOL '_eCode') (section=3, offset=133 (0x0085))
  0803 0085 000e0000 
  005f 0065 0043 006f 0064 0065 0000 
<\string>
//From Emulation-Debug\main.o: 
<0803:0086> (SYMBOL '_running') (section=3, offset=134 (0x0086))
  0803 0086 00120000 
  005f 0072 0075 006e 006e 0069 006e 0067 0000 
<\string>
//From Emulation-Debug\main.o: 
<0803:0088> (SYMBOL '_volume') (section=3, offset=136 (0x0088))
  0803 0088 00100000 
  005f 0076 006f 006c 0075 006d 0065 0000 
<\string>
//From Emulation-Debug\main.o: 
<0803:008b> (SYMBOL '_shuffle') (section=3, offset=139 (0x008b))
  0803 008b 00120000 
  005f 0073 0068 0075 0066 0066 006c 0065 0000 
<\string>
//From Emulation-Debug\main.o: 
<0803:008c> (SYMBOL '_repeatSongStatus') (section=3, offset=140 (0x008c))
  0803 008c 00240000 
  005f 0072 0065 0070 0065 0061 0074 0053 006f 006e 0067 0053 0074 0061 0074 0075 0073 0000 
<\string>
//From Emulation-Debug\main.o: 
<0803:008e> (SYMBOL '_voltageTask') (section=3, offset=142 (0x008e))
  0803 008e 001a0000 
  005f 0076 006f 006c 0074 0061 0067 0065 0054 0061 0073 006b 0000 
<\string>
//From Emulation-Debug\main.o: 
<0803:0090> (SYMBOL '_powerSavingTask') (section=3, offset=144 (0x0090))
  0803 0090 00220000 
  005f 0070 006f 0077 0065 0072 0053 0061 0076 0069 006e 0067 0054 0061 0073 006b 0000 
<\string>
//From Emulation-Debug\main.o: 
<0803:009b> (SYMBOL '_numSongsDirectory') (section=3, offset=155 (0x009b))
  0803 009b 00260000 
  005f 006e 0075 006d 0053 006f 006e 0067 0073 0044 0069 0072 0065 0063 0074 006f 0072 0079 0000 
<\string>
//From Emulation-Debug\main.o: 
<0803:009c> (SYMBOL '_newSongSelected') (section=3, offset=156 (0x009c))
  0803 009c 00220000 
  005f 006e 0065 0077 0053 006f 006e 0067 0053 0065 006c 0065 0063 0074 0065 0064 0000 
<\string>
//From Emulation-Debug\main.o: 
<0803:009d> (SYMBOL '_extension') (section=3, offset=157 (0x009d))
  0803 009d 00160000 
  005f 0065 0078 0074 0065 006e 0073 0069 006f 006e 0000 
<\string>
//From Emulation-Debug\main.o: 
<0803:009e> (SYMBOL '_cbut') (section=3, offset=158 (0x009e))
  0803 009e 000c0000 
  005f 0063 0062 0075 0074 0000 
<\string>
//From Emulation-Debug\main.o: 
<0803:00a0> (SYMBOL '_filespec') (section=3, offset=160 (0x00a0))
  0803 00a0 00140000 
  005f 0066 0069 006c 0065 0073 0070 0065 0063 0000 
<\string>
//From Emulation-Debug\main.o: 
<0803:00a1> (SYMBOL '_fileNum') (section=3, offset=161 (0x00a1))
  0803 00a1 00120000 
  005f 0066 0069 006c 0065 004e 0075 006d 0000 
<\string>
//From Emulation-Debug\main.o: 
<0803:00a2> (SYMBOL 'loadedsca_1') (section=3, offset=162 (0x00a2))
  0803 00a2 00180000 
  006c 006f 0061 0064 0065 0064 0073 0063 0061 005f 0031 0000 
<\string>
//From Emulation-Debug\main.o: 
<0803:00b0> (SYMBOL 'alloc_2') (section=3, offset=176 (0x00b0))
  0803 00b0 00100000 
  0061 006c 006c 006f 0063 005f 0032 0000 
<\string>
//From Emulation-Debug\main.o: 
<0803:00b8> (SYMBOL 'metadatas_3') (section=3, offset=184 (0x00b8))
  0803 00b8 00180000 
  006d 0065 0074 0061 0064 0061 0074 0061 0073 005f 0033 0000 
<\string>
//From Emulation-Debug\main.o: 
<0803:00d8> (SYMBOL 'errorchec_4') (section=3, offset=216 (0x00d8))
  0803 00d8 00180000 
  0065 0072 0072 006f 0072 0063 0068 0065 0063 005f 0034 0000 
<\string>
//From Emulation-Debug\main.o: 
<0803:00e6> (SYMBOL 'w_5') (section=3, offset=230 (0x00e6))
  0803 00e6 00080000 
  0077 005f 0035 0000 
<\string>
//From Emulation-Debug\main.o: 
<0803:00e8> (SYMBOL 'slookups_6') (section=3, offset=232 (0x00e8))
  0803 00e8 00160000 
  0073 006c 006f 006f 006b 0075 0070 0073 005f 0036 0000 
<\string>
//From Emulation-Debug\main.o: 
<0803:00fb> (SYMBOL 'masterson_7') (section=3, offset=251 (0x00fb))
  0803 00fb 00180000 
  006d 0061 0073 0074 0065 0072 0073 006f 006e 005f 0037 0000 
<\string>
//From Emulation-Debug\main.o: 
<0803:011b> (SYMBOL 'file_8') (section=3, offset=283 (0x011b))
  0803 011b 000e0000 
  0066 0069 006c 0065 005f 0038 0000 
<\string>
//From Emulation-Debug\main.o: 
<0803:0122> (SYMBOL 'f_9') (section=3, offset=290 (0x0122))
  0803 0122 00080000 
  0066 005f 0039 0000 
<\string>
//From Emulation-Debug\main.o: 
<0803:0125> (SYMBOL 'beforesca_10') (section=3, offset=293 (0x0125))
  0803 0125 001a0000 
  0062 0065 0066 006f 0072 0065 0073 0063 0061 005f 0031 0030 0000 
<\string>
//From Emulation-Debug\main.o: 
<0803:0133> (SYMBOL 'no_11') (section=3, offset=307 (0x0133))
  0803 0133 000c0000 
  006e 006f 005f 0031 0031 0000 
<\string>
//From Emulation-Debug\main.o: 
<0803:0136> (SYMBOL 'fs_12') (section=3, offset=310 (0x0136))
  0803 0136 000c0000 
  0066 0073 005f 0031 0032 0000 
<\string>
//From Emulation-Debug\main.o: 
<0803:013b> (SYMBOL 'endofsca_13') (section=3, offset=315 (0x013b))
  0803 013b 00180000 
  0065 006e 0064 006f 0066 0073 0063 0061 005f 0031 0033 0000 
<\string>
//From Emulation-Debug\main.o: 
<0803:0149> (SYMBOL 'cyclicvolt_14') (section=3, offset=329 (0x0149))
  0803 0149 001c0000 
  0063 0079 0063 006c 0069 0063 0076 006f 006c 0074 005f 0031 0034 0000 
<\string>
//From Emulation-Debug\main.o: 
<0803:0157> (SYMBOL 'idlecheck_15') (section=3, offset=343 (0x0157))
  0803 0157 001a0000 
  0069 0064 006c 0065 0063 0068 0065 0063 006b 005f 0031 0035 0000 
<\string>
//From Emulation-Debug\main.o: 
<0803:0161> (SYMBOL 'audiodec_16') (section=3, offset=353 (0x0161))
  0803 0161 00180000 
  0061 0075 0064 0069 006f 0064 0065 0063 005f 0031 0036 0000 
<\string>
//From Emulation-Debug\main.o: 
<0803:016a> (SYMBOL 'smp3_17') (section=3, offset=362 (0x016a))
  0803 016a 00100000 
  0073 006d 0070 0033 005f 0031 0037 0000 
<\string>
//From Emulation-Debug\main.o: 
<0803:0172> (SYMBOL 'rbd_18') (section=3, offset=370 (0x0172))
  0803 0172 000e0000 
  0072 0062 0064 005f 0031 0038 0000 
<\string>
//From Emulation-Debug\main.o: 
<0803:0178> (SYMBOL 'mymeta_19') (section=3, offset=376 (0x0178))
  0803 0178 00140000 
  006d 0079 006d 0065 0074 0061 005f 0031 0039 0000 
<\string>
//From Emulation-Debug\main.o: 
<0803:017f> (SYMBOL 'cap3butto_20') (section=3, offset=383 (0x017f))
  0803 017f 001a0000 
  0063 0061 0070 0033 0062 0075 0074 0074 006f 005f 0032 0030 0000 
<\string>
//From Emulation-Debug\main.o: 
<0803:0196> (SYMBOL 'filedno_21') (section=3, offset=406 (0x0196))
  0803 0196 00160000 
  0066 0069 006c 0065 0064 006e 006f 005f 0032 0031 0000 
<\string>
//From Emulation-Debug\main.o: 
<0803:01bc> (SYMBOL 'couldntc_22') (section=3, offset=444 (0x01bc))
  0803 01bc 00180000 
  0063 006f 0075 006c 0064 006e 0074 0063 005f 0032 0032 0000 
<\string>
//From Emulation-Debug\main.o: 
<0803:01db> (SYMBOL 's_23') (section=3, offset=475 (0x01db))
  0803 01db 000a0000 
  0073 005f 0032 0033 0000 
<\string>
//From Emulation-Debug\main.o: 
<0803:01dd> (SYMBOL 'mp3_24') (section=3, offset=477 (0x01dd))
  0803 01dd 000e0000 
  006d 0070 0033 005f 0032 0034 0000 
<\string>
//From Emulation-Debug\main.o: 
<0803:01e1> (SYMBOL 'ss_25') (section=3, offset=481 (0x01e1))
  0803 01e1 000c0000 
  0073 0073 005f 0032 0035 0000 
<\string>
//From Emulation-Debug\main.o: 
<0803:01e7> (SYMBOL 'fopens_26') (section=3, offset=487 (0x01e7))
  0803 01e7 00140000 
  0066 006f 0070 0065 006e 0073 005f 0032 0036 0000 
<\string>
//From Emulation-Debug\main.o: 
<0803:01f7> (SYMBOL 'unknown_27') (section=3, offset=503 (0x01f7))
  0803 01f7 00160000 
  0075 006e 006b 006e 006f 0077 006e 005f 0032 0037 0000 
<\string>
//From Emulation-Debug\main.o: 
<0803:01ff> (SYMBOL 'sis_28') (section=3, offset=511 (0x01ff))
  0803 01ff 000e0000 
  0073 0069 0073 005f 0032 0038 0000 
<\string>
//From Emulation-Debug\main.o: 
<0803:020c> (SYMBOL 'sis_29') (section=3, offset=524 (0x020c))
  0803 020c 000e0000 
  0073 0069 0073 005f 0032 0039 0000 
<\string>
//From Emulation-Debug\main.o: 
<0803:021a> (SYMBOL 'failedto_30') (section=3, offset=538 (0x021a))
  0803 021a 00180000 
  0066 0061 0069 006c 0065 0064 0074 006f 005f 0033 0030 0000 
<\string>
//From Emulation-Debug\main.o: 
<0803:023c> (SYMBOL 'pathnotf_31') (section=3, offset=572 (0x023c))
  0803 023c 00180000 
  0070 0061 0074 0068 006e 006f 0074 0066 005f 0033 0031 0000 
<\string>
//From Emulation-Debug\main.o: 
<0803:024c> (SYMBOL 'system1_32') (section=3, offset=588 (0x024c))
  0803 024c 00160000 
  0073 0079 0073 0074 0065 006d 0031 005f 0033 0032 0000 
<\string>
//From Emulation-Debug\main.o: 
<0803:0255> (SYMBOL 'failedto_33') (section=3, offset=597 (0x0255))
  0803 0255 00180000 
  0066 0061 0069 006c 0065 0064 0074 006f 005f 0033 0033 0000 
<\string>
//From Emulation-Debug\main.o: 
<0803:038a> (SYMBOL 'String_52') (section=3, offset=906 (0x038a))
  0803 038a 00140000 
  0053 0074 0072 0069 006e 0067 005f 0035 0032 0000 
<\string>
//From Emulation-Debug\main.o: 
<0803:038b> (SYMBOL 'String_53') (section=3, offset=907 (0x038b))
  0803 038b 00140000 
  0053 0074 0072 0069 006e 0067 005f 0035 0033 0000 
<\string>
//From Emulation-Debug\main.o: 
<0803:0391> (SYMBOL 'String_54') (section=3, offset=913 (0x0391))
  0803 0391 00140000 
  0053 0074 0072 0069 006e 0067 005f 0035 0034 0000 
<\string>
//From Emulation-Debug\lcd-ili9341.o: 
<0803:0397> (SYMBOL '_ILI9341_init') (section=3, offset=919 (0x0397))
  0803 0397 001c0000 
  005f 0049 004c 0049 0039 0033 0034 0031 005f 0069 006e 0069 0074 0000 
<\string>
//From Emulation-Debug\lcd-ili9341.o: 
<0803:0400> (SYMBOL '_hwInfo9d9368') (section=3, offset=1024 (0x0400))
  0803 0400 001c0000 
  005f 0068 0077 0049 006e 0066 006f 0039 0064 0039 0033 0036 0038 0000 
<\string>
//From Emulation-Debug\buttons.o: 
<0803:0404> (SYMBOL 'nextsong_1') (section=3, offset=1028 (0x0404))
  0803 0404 00160000 
  006e 0065 0078 0074 0073 006f 006e 0067 005f 0031 0000 
<\string>
//From Emulation-Debug\buttons.o: 
<0803:0420> (SYMBOL 'repeat_2') (section=3, offset=1056 (0x0420))
  0803 0420 00120000 
  0072 0065 0070 0065 0061 0074 005f 0032 0000 
<\string>
//From Emulation-Debug\buttons.o: 
<0803:042e> (SYMBOL 'shuffle_3') (section=3, offset=1070 (0x042e))
  0803 042e 00140000 
  0073 0068 0075 0066 0066 006c 0065 005f 0033 0000 
<\string>
//From Emulation-Debug\buttons.o: 
<0803:043d> (SYMBOL 'pausing_4') (section=3, offset=1085 (0x043d))
  0803 043d 00140000 
  0070 0061 0075 0073 0069 006e 0067 005f 0034 0000 
<\string>
//From Emulation-Debug\buttons.o: 
<0803:0447> (SYMBOL 'playing_5') (section=3, offset=1095 (0x0447))
  0803 0447 00140000 
  0070 006c 0061 0079 0069 006e 0067 005f 0035 0000 
<\string>
//From Emulation-Debug\buttons.o: 
<0803:0451> (SYMBOL 'xd_6') (section=3, offset=1105 (0x0451))
  0803 0451 000a0000 
  0078 0064 005f 0036 0000 
<\string>
//From Emulation-Debug\buttons.o: 
<0803:045b> (SYMBOL 'mutei_7') (section=3, offset=1115 (0x045b))
  0803 045b 00100000 
  006d 0075 0074 0065 0069 005f 0037 0000 
<\string>
//From Emulation-Debug\buttons.o: 
<0803:0467> (SYMBOL 'songstopp_8') (section=3, offset=1127 (0x0467))
  0803 0467 00180000 
  0073 006f 006e 0067 0073 0074 006f 0070 0070 005f 0038 0000 
<\string>
//From Emulation-Debug\buttons.o: 
<0803:0477> (SYMBOL 'previouss_9') (section=3, offset=1143 (0x0477))
  0803 0477 00180000 
  0070 0072 0065 0076 0069 006f 0075 0073 0073 005f 0039 0000 
<\string>
//From Emulation-Debug\UI.o: 
<0803:048c> (SYMBOL '_filehandle') (section=3, offset=1164 (0x048c))
  0803 048c 00180000 
  005f 0066 0069 006c 0065 0068 0061 006e 0064 006c 0065 0000 
<\string>
//From Emulation-Debug\UI.o: 
<0803:048d> (SYMBOL '_endOfFile') (section=3, offset=1165 (0x048d))
  0803 048d 00160000 
  005f 0065 006e 0064 004f 0066 0046 0069 006c 0065 0000 
<\string>
//From Emulation-Debug\UI.o: 
<0803:048e> (SYMBOL '_pageNum') (section=3, offset=1166 (0x048e))
  0803 048e 00120000 
  005f 0070 0061 0067 0065 004e 0075 006d 0000 
<\string>
//From Emulation-Debug\UI.o: 
<0803:048f> (SYMBOL '_lastTimeSeconds') (section=3, offset=1167 (0x048f))
  0803 048f 00220000 
  005f 006c 0061 0073 0074 0054 0069 006d 0065 0053 0065 0063 006f 006e 0064 0073 0000 
<\string>
//From Emulation-Debug\UI.o: 
<0803:0490> (SYMBOL '_topOfList') (section=3, offset=1168 (0x0490))
  0803 0490 00160000 
  005f 0074 006f 0070 004f 0066 004c 0069 0073 0074 0000 
<\string>
//From Emulation-Debug\UI.o: 
<0803:0492> (SYMBOL 'mainmenu_1') (section=3, offset=1170 (0x0492))
  0803 0492 00160000 
  006d 0061 0069 006e 006d 0065 006e 0075 005f 0031 0000 
<\string>
//From Emulation-Debug\UI.o: 
<0803:049c> (SYMBOL 'artists_2') (section=3, offset=1180 (0x049c))
  0803 049c 00140000 
  0061 0072 0074 0069 0073 0074 0073 005f 0032 0000 
<\string>
//From Emulation-Debug\UI.o: 
<0803:04a4> (SYMBOL 'playlists_3') (section=3, offset=1188 (0x04a4))
  0803 04a4 00180000 
  0070 006c 0061 0079 006c 0069 0073 0074 0073 005f 0033 0000 
<\string>
//From Emulation-Debug\UI.o: 
<0803:04ae> (SYMBOL 'songs_4') (section=3, offset=1198 (0x04ae))
  0803 04ae 00100000 
  0073 006f 006e 0067 0073 005f 0034 0000 
<\string>
//From Emulation-Debug\UI.o: 
<0803:04b4> (SYMBOL 'info_5') (section=3, offset=1204 (0x04b4))
  0803 04b4 000e0000 
  0069 006e 0066 006f 005f 0035 0000 
<\string>
//From Emulation-Debug\UI.o: 
<0803:04b9> (SYMBOL 'back_6') (section=3, offset=1209 (0x04b9))
  0803 04b9 000e0000 
  0062 0061 0063 006b 005f 0036 0000 
<\string>
//From Emulation-Debug\UI.o: 
<0803:04be> (SYMBOL 'up_7') (section=3, offset=1214 (0x04be))
  0803 04be 000a0000 
  0075 0070 005f 0037 0000 
<\string>
//From Emulation-Debug\UI.o: 
<0803:04c1> (SYMBOL 'down_8') (section=3, offset=1217 (0x04c1))
  0803 04c1 000e0000 
  0064 006f 0077 006e 005f 0038 0000 
<\string>
//From Emulation-Debug\UI.o: 
<0803:04c6> (SYMBOL 'select_9') (section=3, offset=1222 (0x04c6))
  0803 04c6 00120000 
  0073 0065 006c 0065 0063 0074 005f 0039 0000 
<\string>
//From Emulation-Debug\UI.o: 
<0803:04cd> (SYMBOL 'String_10') (section=3, offset=1229 (0x04cd))
  0803 04cd 00140000 
  0053 0074 0072 0069 006e 0067 005f 0031 0030 0000 
<\string>
//From Emulation-Debug\UI.o: 
<0803:04ee> (SYMBOL 'String_11') (section=3, offset=1262 (0x04ee))
  0803 04ee 00140000 
  0053 0074 0072 0069 006e 0067 005f 0031 0031 0000 
<\string>
//From Emulation-Debug\UI.o: 
<0803:04f0> (SYMBOL 'String_12') (section=3, offset=1264 (0x04f0))
  0803 04f0 00140000 
  0053 0074 0072 0069 006e 0067 005f 0031 0032 0000 
<\string>
//From Emulation-Debug\UI.o: 
<0803:050f> (SYMBOL 'topoflis_13') (section=3, offset=1295 (0x050f))
  0803 050f 00180000 
  0074 006f 0070 006f 0066 006c 0069 0073 005f 0031 0033 0000 
<\string>
//From Emulation-Debug\UI.o: 
<0803:0527> (SYMBOL 'artistsme_14') (section=3, offset=1319 (0x0527))
  0803 0527 001a0000 
  0061 0072 0074 0069 0073 0074 0073 006d 0065 005f 0031 0034 0000 
<\string>
//From Emulation-Debug\UI.o: 
<0803:0534> (SYMBOL 'rb_15') (section=3, offset=1332 (0x0534))
  0803 0534 000c0000 
  0072 0062 005f 0031 0035 0000 
<\string>
//From Emulation-Debug\UI.o: 
<0803:0537> (SYMBOL 'slookups_16') (section=3, offset=1335 (0x0537))
  0803 0537 00180000 
  0073 006c 006f 006f 006b 0075 0070 0073 005f 0031 0036 0000 
<\string>
//From Emulation-Debug\UI.o: 
<0803:054a> (SYMBOL 'failedto_17') (section=3, offset=1354 (0x054a))
  0803 054a 00180000 
  0066 0061 0069 006c 0065 0064 0074 006f 005f 0031 0037 0000 
<\string>
//From Emulation-Debug\UI.o: 
<0803:0560> (SYMBOL 'playlistm_18') (section=3, offset=1376 (0x0560))
  0803 0560 001a0000 
  0070 006c 0061 0079 006c 0069 0073 0074 006d 005f 0031 0038 0000 
<\string>
//From Emulation-Debug\UI.o: 
<0803:056e> (SYMBOL 'songsmenu_19') (section=3, offset=1390 (0x056e))
  0803 056e 001a0000 
  0073 006f 006e 0067 0073 006d 0065 006e 0075 005f 0031 0039 0000 
<\string>
//From Emulation-Debug\UI.o: 
<0803:0579> (SYMBOL 'scanningd_20') (section=3, offset=1401 (0x0579))
  0803 0579 001a0000 
  0073 0063 0061 006e 006e 0069 006e 0067 0064 005f 0032 0030 0000 
<\string>
//From Emulation-Debug\UI.o: 
<0803:0594> (SYMBOL 'acritical_21') (section=3, offset=1428 (0x0594))
  0803 0594 001a0000 
  0061 0063 0072 0069 0074 0069 0063 0061 006c 005f 0032 0031 0000 
<\string>
//From Emulation-Debug\UI.o: 
<0803:05b2> (SYMBOL 'pleasetry_22') (section=3, offset=1458 (0x05b2))
  0803 05b2 001a0000 
  0070 006c 0065 0061 0073 0065 0074 0072 0079 005f 0032 0032 0000 
<\string>
//From Emulation-Debug\UI.o: 
<0803:05d3> (SYMBOL 'iftheerr_23') (section=3, offset=1491 (0x05d3))
  0803 05d3 00180000 
  0069 0066 0074 0068 0065 0065 0072 0072 005f 0032 0033 0000 
<\string>
//From Emulation-Debug\UI.o: 
<0803:05f6> (SYMBOL 'infomenu_24') (section=3, offset=1526 (0x05f6))
  0803 05f6 00180000 
  0069 006e 0066 006f 006d 0065 006e 0075 005f 0032 0034 0000 
<\string>
//From Emulation-Debug\UI.o: 
<0803:0600> (SYMBOL 'String_25') (section=3, offset=1536 (0x0600))
  0803 0600 00140000 
  0053 0074 0072 0069 006e 0067 005f 0032 0035 0000 
<\string>
//From Emulation-Debug\UI.o: 
<0803:0621> (SYMBOL 'String_26') (section=3, offset=1569 (0x0621))
  0803 0621 00140000 
  0053 0074 0072 0069 006e 0067 005f 0032 0036 0000 
<\string>
//From Emulation-Debug\UI.o: 
<0803:0623> (SYMBOL 'nodrived_27') (section=3, offset=1571 (0x0623))
  0803 0623 00180000 
  006e 006f 0064 0072 0069 0076 0065 0064 005f 0032 0037 0000 
<\string>
//From Emulation-Debug\UI.o: 
<0803:0636> (SYMBOL 'makesure_28') (section=3, offset=1590 (0x0636))
  0803 0636 00180000 
  006d 0061 006b 0065 0073 0075 0072 0065 005f 0032 0038 0000 
<\string>
//From Emulation-Debug\UI.o: 
<0803:0658> (SYMBOL 'andisfor_29') (section=3, offset=1624 (0x0658))
  0803 0658 00180000 
  0061 006e 0064 0069 0073 0066 006f 0072 005f 0032 0039 0000 
<\string>
//From Emulation-Debug\UI.o: 
<0803:0670> (SYMBOL 'JumpTable_30') (section=3, offset=1648 (0x0670))
  0803 0670 001a0000 
  004a 0075 006d 0070 0054 0061 0062 006c 0065 005f 0033 0030 0000 
<\string>
//From Emulation-Debug\UI.o: 
<0803:0675> (SYMBOL 'button10_31') (section=3, offset=1653 (0x0675))
  0803 0675 00180000 
  0062 0075 0074 0074 006f 006e 0031 0030 005f 0033 0031 0000 
<\string>
//From Emulation-Debug\UI.o: 
<0803:0680> (SYMBOL 'button11_32') (section=3, offset=1664 (0x0680))
  0803 0680 00180000 
  0062 0075 0074 0074 006f 006e 0031 0031 005f 0033 0032 0000 
<\string>
//From Emulation-Debug\UI.o: 
<0803:068b> (SYMBOL 'button12_33') (section=3, offset=1675 (0x068b))
  0803 068b 00180000 
  0062 0075 0074 0074 006f 006e 0031 0032 005f 0033 0033 0000 
<\string>
//From Emulation-Debug\UI.o: 
<0803:0696> (SYMBOL 'button13_34') (section=3, offset=1686 (0x0696))
  0803 0696 00180000 
  0062 0075 0074 0074 006f 006e 0031 0033 005f 0033 0034 0000 
<\string>
//From Emulation-Debug\UI.o: 
<0803:06a1> (SYMBOL 'si_35') (section=3, offset=1697 (0x06a1))
  0803 06a1 000c0000 
  0073 0069 005f 0033 0035 0000 
<\string>
//From Emulation-Debug\battery.o: 
<0803:06ab> (SYMBOL 'aux4d_1') (section=3, offset=1707 (0x06ab))
  0803 06ab 00100000 
  0061 0075 0078 0034 0064 005f 0031 0000 
<\string>
//From Emulation-Debug\battery.o: 
<0803:06c1> (SYMBOL 'batt_2') (section=3, offset=1729 (0x06c1))
  0803 06c1 000e0000 
  0062 0061 0074 0074 005f 0032 0000 
<\string>
//From Emulation-Debug\battery.o: 
<0803:06cd> (SYMBOL 'ch_3') (section=3, offset=1741 (0x06cd))
  0803 06cd 000a0000 
  0063 0068 005f 0033 0000 
<\string>
//From Emulation-Debug\battery.o: 
<0803:06d0> (SYMBOL 'nc_4') (section=3, offset=1744 (0x06d0))
  0803 06d0 000a0000 
  006e 0063 005f 0034 0000 
<\string>
//From Emulation-Debug\battery.o: 
<0803:06d3> (SYMBOL 'String_5') (section=3, offset=1747 (0x06d3))
  0803 06d3 00120000 
  0053 0074 0072 0069 006e 0067 005f 0035 0000 
<\string>
//From Emulation-Debug\battery.o: 
<0803:06d8> (SYMBOL 'f_6') (section=3, offset=1752 (0x06d8))
  0803 06d8 00080000 
  0066 005f 0036 0000 
<\string>
//From Emulation-Debug\battery.o: 
<0803:06df> (SYMBOL 'low_7') (section=3, offset=1759 (0x06df))
  0803 06df 000c0000 
  006c 006f 0077 005f 0037 0000 
<\string>
//From Emulation-Debug\battery.o: 
<0803:06e4> (SYMBOL 'batt3f_8') (section=3, offset=1764 (0x06e4))
  0803 06e4 00120000 
  0062 0061 0074 0074 0033 0066 005f 0038 0000 
<\string>
//From Emulation-Debug\battery.o: 
<0803:06f2> (SYMBOL 'voltage_9') (section=3, offset=1778 (0x06f2))
  0803 06f2 00140000 
  0076 006f 006c 0074 0061 0067 0065 005f 0039 0000 
<\string>
//From Emulation-Debug\devByteBus.o: 
<0803:0704> (SYMBOL '_devByteBusDefaults') (section=3, offset=1796 (0x0704))
  0803 0704 00280000 
  005f 0064 0065 0076 0042 0079 0074 0065 0042 0075 0073 0044 0065 0066 0061 0075 006c 0074 0073 0000 
<\string>
//From Emulation-Debug\devByteBus.o: 
<0803:0725> (SYMBOL 'bytewideb_1') (section=3, offset=1829 (0x0725))
  0803 0725 00180000 
  0062 0079 0074 0065 0077 0069 0064 0065 0062 005f 0031 0000 
<\string>
//From Emulation-Debug\devByteBus.o: 
<0803:0732> (SYMBOL 'JumpTable_2') (section=3, offset=1842 (0x0732))
  0803 0732 00180000 
  004a 0075 006d 0070 0054 0061 0062 006c 0065 005f 0032 0000 
<\string>
//From Emulation-Debug\UART.o: 
<0804:0000> (SYMBOL 'ctogg_1') (section=4, offset=0 (0x0000))
  0804 0000 00100000 
  0063 0074 006f 0067 0067 005f 0031 0000 
<\string>
//From Emulation-Debug\UART.o: 
<0804:002e> (SYMBOL 'play_2') (section=4, offset=46 (0x002e))
  0804 002e 000e0000 
  0070 006c 0061 0079 005f 0032 0000 
<\string>
//From Emulation-Debug\UART.o: 
<0804:0043> (SYMBOL 'play_3') (section=4, offset=67 (0x0043))
  0804 0043 000e0000 
  0070 006c 0061 0079 005f 0033 0000 
<\string>
//From Emulation-Debug\UART.o: 
<0804:005c> (SYMBOL 'volu_4') (section=4, offset=92 (0x005c))
  0804 005c 000e0000 
  0076 006f 006c 0075 005f 0034 0000 
<\string>
//From Emulation-Debug\UART.o: 
<0804:006c> (SYMBOL 'volu_5') (section=4, offset=108 (0x006c))
  0804 006c 000e0000 
  0076 006f 006c 0075 005f 0035 0000 
<\string>
//From Emulation-Debug\UART.o: 
<0804:007e> (SYMBOL 'rtogg_6') (section=4, offset=126 (0x007e))
  0804 007e 00100000 
  0072 0074 006f 0067 0067 005f 0036 0000 
<\string>
//From Emulation-Debug\UART.o: 
<0804:009c> (SYMBOL 'ptogg_7') (section=4, offset=156 (0x009c))
  0804 009c 00100000 
  0070 0074 006f 0067 0067 005f 0037 0000 
<\string>
//From Emulation-Debug\UART.o: 
<0804:00b4> (SYMBOL 'ipres_8') (section=4, offset=180 (0x00b4))
  0804 00b4 00100000 
  0069 0070 0072 0065 0073 005f 0038 0000 
<\string>
//From Emulation-Debug\UART.o: 
<0804:00d7> (SYMBOL 'kpres_9') (section=4, offset=215 (0x00d7))
  0804 00d7 00100000 
  006b 0070 0072 0065 0073 005f 0039 0000 
<\string>
//From Emulation-Debug\UART.o: 
<0804:00fd> (SYMBOL 'opres_10') (section=4, offset=253 (0x00fd))
  0804 00fd 00120000 
  006f 0070 0072 0065 0073 005f 0031 0030 0000 
<\string>
//From Emulation-Debug\UART.o: 
<0804:0121> (SYMBOL 'lpres_11') (section=4, offset=289 (0x0121))
  0804 0121 00120000 
  006c 0070 0072 0065 0073 005f 0031 0031 0000 
<\string>
//From Emulation-Debug\UART.o: 
<0804:0148> (SYMBOL 'sprin_12') (section=4, offset=328 (0x0148))
  0804 0148 00120000 
  0073 0070 0072 0069 006e 005f 0031 0032 0000 
<\string>
//From Emulation-Debug\UART.o: 
<0804:016f> (SYMBOL 'atogg_13') (section=4, offset=367 (0x016f))
  0804 016f 00120000 
  0061 0074 006f 0067 0067 005f 0031 0033 0000 
<\string>
//From Emulation-Debug\UART.o: 
<0804:01ac> (SYMBOL 'hprin_14') (section=4, offset=428 (0x01ac))
  0804 01ac 00120000 
  0068 0070 0072 0069 006e 005f 0031 0034 0000 
<\string>
//From Emulation-Debug\UART.o: 
<0804:01c8> (SYMBOL 'se_15') (section=4, offset=456 (0x01c8))
  0804 01c8 000c0000 
  0073 0065 005f 0031 0035 0000 
<\string>
//From Emulation-Debug\UART.o: 
<0804:01f9> (SYMBOL 'xd_16') (section=4, offset=505 (0x01f9))
  0804 01f9 000c0000 
  0078 0064 005f 0031 0036 0000 
<\string>
//From Emulation-Debug\UART.o: 
<0804:0203> (SYMBOL 'repeato_17') (section=4, offset=515 (0x0203))
  0804 0203 00160000 
  0072 0065 0070 0065 0061 0074 006f 005f 0031 0037 0000 
<\string>
//From Emulation-Debug\UART.o: 
<0804:0210> (SYMBOL 'repeato_18') (section=4, offset=528 (0x0210))
  0804 0210 00160000 
  0072 0065 0070 0065 0061 0074 006f 005f 0031 0038 0000 
<\string>
//From Emulation-Debug\UART.o: 
<0804:021c> (SYMBOL 'pausing_19') (section=4, offset=540 (0x021c))
  0804 021c 00160000 
  0070 0061 0075 0073 0069 006e 0067 005f 0031 0039 0000 
<\string>
//From Emulation-Debug\UART.o: 
<0804:0226> (SYMBOL 'playing_20') (section=4, offset=550 (0x0226))
  0804 0226 00160000 
  0070 006c 0061 0079 0069 006e 0067 005f 0032 0030 0000 
<\string>
//From Emulation-Debug\UART.o: 
<0804:0230> (SYMBOL 'JumpTable_21') (section=4, offset=560 (0x0230))
  0804 0230 001a0000 
  004a 0075 006d 0070 0054 0061 0062 006c 0065 005f 0032 0031 0000 
<\string>
//From Emulation-Debug\UART.o: 
<0804:0235> (SYMBOL 'JumpTable_22') (section=4, offset=565 (0x0235))
  0804 0235 001a0000 
  004a 0075 006d 0070 0054 0061 0062 006c 0065 005f 0032 0032 0000 
<\string>
//From Emulation-Debug\UART.o: 
<0804:023a> (SYMBOL 'JumpTable_23') (section=4, offset=570 (0x023a))
  0804 023a 001a0000 
  004a 0075 006d 0070 0054 0061 0062 006c 0065 005f 0032 0033 0000 
<\string>
//From Emulation-Debug\UART.o: 
<0804:023f> (SYMBOL 'si_24') (section=4, offset=575 (0x023f))
  0804 023f 000c0000 
  0073 0069 005f 0032 0034 0000 
<\string>
//From Emulation-Debug\UART.o: 
<0804:0249> (SYMBOL 'charging_25') (section=4, offset=585 (0x0249))
  0804 0249 00180000 
  0063 0068 0061 0072 0067 0069 006e 0067 005f 0032 0035 0000 
<\string>
//From Emulation-Debug\UART.o: 
<0804:0259> (SYMBOL 'volume_26') (section=4, offset=601 (0x0259))
  0804 0259 00140000 
  0076 006f 006c 0075 006d 0065 005f 0032 0036 0000 
<\string>
//From Emulation-Debug\UART.o: 
<0804:0269> (SYMBOL 'shuffling_27') (section=4, offset=617 (0x0269))
  0804 0269 001a0000 
  0073 0068 0075 0066 0066 006c 0069 006e 0067 005f 0032 0037 0000 
<\string>
//From Emulation-Debug\UART.o: 
<0804:0279> (SYMBOL 'repeating_28') (section=4, offset=633 (0x0279))
  0804 0279 001a0000 
  0072 0065 0070 0065 0061 0074 0069 006e 0067 005f 0032 0038 0000 
<\string>
//From Emulation-Debug\UART.o: 
<0804:0289> (SYMBOL 'mute_29') (section=4, offset=649 (0x0289))
  0804 0289 00100000 
  006d 0075 0074 0065 005f 0032 0039 0000 
<\string>
//From Emulation-Debug\UART.o: 
<0804:0299> (SYMBOL 'auxchoice_30') (section=4, offset=665 (0x0299))
  0804 0299 001a0000 
  0061 0075 0078 0063 0068 006f 0069 0063 0065 005f 0033 0030 0000 
<\string>
//From Emulation-Debug\UART.o: 
<0804:02aa> (SYMBOL 'auxchoice_31') (section=4, offset=682 (0x02aa))
  0804 02aa 001a0000 
  0061 0075 0078 0063 0068 006f 0069 0063 0065 005f 0033 0031 0000 
<\string>
//From Emulation-Debug\main.o: 
<0805:0002> (SYMBOL '_metadata') (section=5, offset=2 (0x0002))
  0805 0002 00140000 
  005f 006d 0065 0074 0061 0064 0061 0074 0061 0000 
<\string>
//From Emulation-Debug\main.o: 
<0805:0003> (SYMBOL '_seed') (section=5, offset=3 (0x0003))
  0805 0003 000c0000 
  005f 0073 0065 0065 0064 0000 
<\string>
//From Emulation-Debug\main.o: 
<0805:0004> (SYMBOL '_path') (section=5, offset=4 (0x0004))
  0805 0004 000c0000 
  005f 0070 0061 0074 0068 0000 
<\string>
//From Emulation-Debug\main.o: 
<0805:0005> (SYMBOL '_index') (section=5, offset=5 (0x0005))
  0805 0005 000e0000 
  005f 0069 006e 0064 0065 0078 0000 
<\string>
//From Emulation-Debug\main.o: 
<0805:0006> (SYMBOL '_directory') (section=5, offset=6 (0x0006))
  0805 0006 00160000 
  005f 0064 0069 0072 0065 0063 0074 006f 0072 0079 0000 
<\string>
//From Emulation-Debug\main.o: 
<0805:00c7> (SYMBOL '_offset') (section=5, offset=199 (0x00c7))
  0805 00c7 00100000 
  005f 006f 0066 0066 0073 0065 0074 0000 
<\string>
//From Emulation-Debug\main.o: 
<0805:00c9> (SYMBOL '_fnumMode67fb28') (section=5, offset=201 (0x00c9))
  0805 00c9 00200000 
  005f 0066 006e 0075 006d 004d 006f 0064 0065 0036 0037 0066 0062 0032 0038 0000 
<\string>
//From Emulation-Debug\main.o: 
<0805:00d3> (SYMBOL '_filenum6d0408') (section=5, offset=211 (0x00d3))
  0805 00d3 001e0000 
  005f 0066 0069 006c 0065 006e 0075 006d 0036 0064 0030 0034 0030 0038 0000 
<\string>
//From Emulation-Debug\lcd-ili9341.o: 
<0805:00e7> (SYMBOL '_devLcdHw') (section=5, offset=231 (0x00e7))
  0805 00e7 00140000 
  005f 0064 0065 0076 004c 0063 0064 0048 0077 0000 
<\string>
//From Emulation-Debug\lcd-ili9341.o: 
<0805:0108> (SYMBOL '_buff8ffb18') (section=5, offset=264 (0x0108))
  0805 0108 00180000 
  005f 0062 0075 0066 0066 0038 0066 0066 0062 0031 0038 0000 
<\string>
//From Emulation-Debug\UI.o: 
<0805:0140> (SYMBOL '_buffer') (section=5, offset=320 (0x0140))
  0805 0140 00100000 
  005f 0062 0075 0066 0066 0065 0072 0000 
<\string>
//From Emulation-Debug\UI.o: 
<0805:01c0> (SYMBOL '_currentTitle') (section=5, offset=448 (0x01c0))
  0805 01c0 001c0000 
  005f 0063 0075 0072 0072 0065 006e 0074 0054 0069 0074 006c 0065 0000 
<\string>
//From Emulation-Debug\lcd-ili9341.o: 
<0806:0000> (SYMBOL 'InitTemplate_1') (section=6, offset=0 (0x0000))
  0806 0000 001e0000 
  0049 006e 0069 0074 0054 0065 006d 0070 006c 0061 0074 0065 005f 0031 0000 
<\string>
//From C:\Program Files (x86)\VSIDE\libvs1005h_vsos3/libc.a:_strtok.o: 
<0806:000d> (SYMBOL '_strtok_oldaddr') (section=6, offset=13 (0x000d))
  0806 000d 00200000 
  005f 0073 0074 0072 0074 006f 006b 005f 006f 006c 0064 0061 0064 0064 0072 0000 
<\string>

<0a00:a45d> (CRCCHECK)
  0a00 a45d sizesize 
  
<\ sizesize <- 00000000 > // 0 bytes of payload.

<0900:0000> (ENTRYLIST)
  0900 0000 sizesize 
  6d61 0000 0000  // _main
  
<\ sizesize <- 00060000 > // 6 bytes of payload.

<0a01:7667> (CRCCHECK)
  0a01 7667 sizesize 
  
<\ sizesize <- 00000000 > // 0 bytes of payload.
00000000 ffffffff 
<0a00:fffe> (CRCCHECK)
  0a00 fffe sizesize 
  
<\ sizesize <- 00000000 > // 0 bytes of payload.
